; ModuleID = 'dominator_frontier.cpp'
target datalayout = "e-m:e-i64:64-f80:128-n8:16:32:64-S128"
target triple = "x86_64-pc-linux-gnu"

%"class.std::ios_base::Init" = type { i8 }
%"class.std::basic_ostream" = type { i32 (...)**, %"class.std::basic_ios" }
%"class.std::basic_ios" = type { %"class.std::ios_base", %"class.std::basic_ostream"*, i8, i8, %"class.std::basic_streambuf"*, %"class.std::ctype"*, %"class.std::num_put"*, %"class.std::num_get"* }
%"class.std::ios_base" = type { i32 (...)**, i64, i64, i32, i32, i32, %"struct.std::ios_base::_Callback_list"*, %"struct.std::ios_base::_Words", [8 x %"struct.std::ios_base::_Words"], i32, %"struct.std::ios_base::_Words"*, %"class.std::locale" }
%"struct.std::ios_base::_Callback_list" = type { %"struct.std::ios_base::_Callback_list"*, void (i32, %"class.std::ios_base"*, i32)*, i32, i32 }
%"struct.std::ios_base::_Words" = type { i8*, i64 }
%"class.std::locale" = type { %"class.std::locale::_Impl"* }
%"class.std::locale::_Impl" = type { i32, %"class.std::locale::facet"**, i64, %"class.std::locale::facet"**, i8** }
%"class.std::locale::facet" = type { i32 (...)**, i32 }
%"class.std::basic_streambuf" = type { i32 (...)**, i8*, i8*, i8*, i8*, i8*, i8*, %"class.std::locale" }
%"class.std::ctype" = type { [12 x i8], %struct.__locale_struct*, i8, i32*, i32*, i16*, i8, [256 x i8], [256 x i8], i8 }
%struct.__locale_struct = type { [13 x %struct.__locale_data*], i16*, i32*, i32*, [13 x i8*] }
%struct.__locale_data = type opaque
%"class.std::num_put" = type { [12 x i8], [4 x i8] }
%"class.std::num_get" = type { [12 x i8], [4 x i8] }
%struct._IO_FILE = type { i32, i8*, i8*, i8*, i8*, i8*, i8*, i8*, i8*, i8*, i8*, i8*, %struct._IO_marker*, %struct._IO_FILE*, i32, i32, i64, i16, i8, [1 x i8], i8*, i64, i8*, i8*, i8*, i8*, i64, i32, [20 x i8] }
%struct._IO_marker = type { %struct._IO_marker*, %struct._IO_FILE*, i32 }
%"class.std::basic_istream" = type { i32 (...)**, i64, %"class.std::basic_ios" }
%class.graph = type { %"class.std::vector", %"class.std::vector.5", %"class.std::vector.9", %"class.std::vector.9", %"class.std::vector.0", %"class.std::vector.9", i32 }
%"class.std::vector" = type { %"struct.std::_Vector_base" }
%"struct.std::_Vector_base" = type { %"struct.std::_Vector_base<std::vector<int, std::allocator<int> >, std::allocator<std::vector<int, std::allocator<int> > > >::_Vector_impl" }
%"struct.std::_Vector_base<std::vector<int, std::allocator<int> >, std::allocator<std::vector<int, std::allocator<int> > > >::_Vector_impl" = type { %"class.std::vector.0"*, %"class.std::vector.0"*, %"class.std::vector.0"* }
%"class.std::vector.5" = type { %"struct.std::_Bvector_base" }
%"struct.std::_Bvector_base" = type { %"struct.std::_Bvector_base<std::allocator<bool> >::_Bvector_impl" }
%"struct.std::_Bvector_base<std::allocator<bool> >::_Bvector_impl" = type { %"struct.std::_Bit_iterator", %"struct.std::_Bit_iterator", i64* }
%"struct.std::_Bit_iterator" = type { [12 x i8], [4 x i8] }
%"class.std::vector.0" = type { %"struct.std::_Vector_base.1" }
%"struct.std::_Vector_base.1" = type { %"struct.std::_Vector_base<int, std::allocator<int> >::_Vector_impl" }
%"struct.std::_Vector_base<int, std::allocator<int> >::_Vector_impl" = type { i32*, i32*, i32* }
%"class.std::vector.9" = type { %"struct.std::_Vector_base.10" }
%"struct.std::_Vector_base.10" = type { %"struct.std::_Vector_base<std::set<int, std::less<int>, std::allocator<int> >, std::allocator<std::set<int, std::less<int>, std::allocator<int> > > >::_Vector_impl" }
%"struct.std::_Vector_base<std::set<int, std::less<int>, std::allocator<int> >, std::allocator<std::set<int, std::less<int>, std::allocator<int> > > >::_Vector_impl" = type { %"class.std::set"*, %"class.std::set"*, %"class.std::set"* }
%"class.std::set" = type { %"class.std::_Rb_tree" }
%"class.std::_Rb_tree" = type { %"struct.std::_Rb_tree<int, int, std::_Identity<int>, std::less<int>, std::allocator<int> >::_Rb_tree_impl" }
%"struct.std::_Rb_tree<int, int, std::_Identity<int>, std::less<int>, std::allocator<int> >::_Rb_tree_impl" = type { %"struct.std::less", %"struct.std::_Rb_tree_node_base", i64 }
%"struct.std::less" = type { i8 }
%"struct.std::_Rb_tree_node_base" = type { i32, %"struct.std::_Rb_tree_node_base"*, %"struct.std::_Rb_tree_node_base"*, %"struct.std::_Rb_tree_node_base"* }
%"class.__gnu_cxx::__normal_iterator.29" = type { %"class.std::vector.0"* }
%"class.std::allocator" = type { i8 }
%"class.__gnu_cxx::__normal_iterator.28" = type { %"class.std::set"* }
%"class.std::allocator.11" = type { i8 }
%"struct.std::_Bit_reference" = type { i64*, i64 }
%"struct.std::_Bit_iterator_base" = type { i64*, i32 }
%"class.__gnu_cxx::__normal_iterator" = type { i32* }
%"class.std::allocator.2" = type { i8 }
%"struct.std::_Rb_tree_const_iterator" = type { %"struct.std::_Rb_tree_node_base"* }
%"struct.std::_Rb_tree_iterator" = type { %"struct.std::_Rb_tree_node_base"* }
%"struct.std::pair" = type { %"struct.std::_Rb_tree_const_iterator", i8 }
%"struct.std::pair.27" = type { %"struct.std::_Rb_tree_iterator", i8 }
%"struct.std::_Rb_tree_node" = type { %"struct.std::_Rb_tree_node_base", i32 }
%"class.std::insert_iterator" = type { %"class.std::set"*, %"struct.std::_Rb_tree_const_iterator" }
%"class.std::allocator.18" = type { i8 }
%"class.std::queue" = type { %"class.std::deque" }
%"class.std::deque" = type { %"class.std::_Deque_base" }
%"class.std::_Deque_base" = type { %"struct.std::_Deque_base<int, std::allocator<int> >::_Deque_impl" }
%"struct.std::_Deque_base<int, std::allocator<int> >::_Deque_impl" = type { i32**, i64, %"struct.std::_Deque_iterator", %"struct.std::_Deque_iterator" }
%"struct.std::_Deque_iterator" = type { i32*, i32*, i32*, i32** }
%"class.__gnu_cxx::new_allocator.19" = type { i8 }
%"struct.std::pair.21" = type { %"struct.std::_Rb_tree_iterator", %"struct.std::_Rb_tree_iterator" }
%"class.__gnu_cxx::new_allocator.3" = type { i8 }
%"class.std::allocator.14" = type { i8 }
%"class.__gnu_cxx::new_allocator.15" = type { i8 }
%"struct.std::_Identity" = type { i8 }
%"class.std::allocator.22" = type { i8 }
%"class.__gnu_cxx::new_allocator.23" = type { i8 }
%"struct.std::_Deque_iterator.25" = type { i32*, i32*, i32*, i32** }
%"class.std::allocator.6" = type { i8 }
%"class.__gnu_cxx::new_allocator.7" = type { i8 }
%"struct.std::iterator" = type { i8 }
%"struct.std::pair.26" = type { %"struct.std::_Rb_tree_node_base"*, %"struct.std::_Rb_tree_node_base"* }
%"struct.std::iterator.17" = type { i8 }
%"class.__gnu_cxx::new_allocator.12" = type { i8 }
%"class.__gnu_cxx::new_allocator" = type { i8 }
%"struct.std::_Bit_const_iterator" = type { [12 x i8], [4 x i8] }
%"class.__gnu_cxx::__normal_iterator.30" = type { i32* }

@_ZStL8__ioinit = internal global %"class.std::ios_base::Init" zeroinitializer, align 1
@__dso_handle = external global i8
@_ZSt4cout = external global %"class.std::basic_ostream"
@.str = private unnamed_addr constant [22 x i8] c"Node : Its Dominators\00", align 1
@.str1 = private unnamed_addr constant [2 x i8] c"\0A\00", align 1
@.str2 = private unnamed_addr constant [4 x i8] c" : \00", align 1
@.str3 = private unnamed_addr constant [2 x i8] c" \00", align 1
@.str4 = private unnamed_addr constant [8 x i8] c"\0A Loop \00", align 1
@.str5 = private unnamed_addr constant [8 x i8] c"\0AIdom \0A\00", align 1
@.str6 = private unnamed_addr constant [5 x i8] c"DF \0A\00", align 1
@.str7 = private unnamed_addr constant [11 x i8] c"inloop.txt\00", align 1
@.str8 = private unnamed_addr constant [2 x i8] c"r\00", align 1
@stdin = external global %struct._IO_FILE*
@_ZSt3cin = external global %"class.std::basic_istream"
@.str9 = private unnamed_addr constant [22 x i8] c"vector::_M_insert_aux\00", align 1
@.str10 = private unnamed_addr constant [28 x i8] c"vector<bool>::_M_insert_aux\00", align 1
@llvm.global_ctors = appending global [1 x { i32, void ()* }] [{ i32, void ()* } { i32 65535, void ()* @_GLOBAL__I_a }]

@_ZN5graphC1Ei = alias void (%class.graph*, i32)* @_ZN5graphC2Ei

define internal void @__cxx_global_var_init() section ".text.startup" {
  call void @_ZNSt8ios_base4InitC1Ev(%"class.std::ios_base::Init"* @_ZStL8__ioinit)
  %1 = call i32 @__cxa_atexit(void (i8*)* bitcast (void (%"class.std::ios_base::Init"*)* @_ZNSt8ios_base4InitD1Ev to void (i8*)*), i8* getelementptr inbounds (%"class.std::ios_base::Init"* @_ZStL8__ioinit, i32 0, i32 0), i8* @__dso_handle) #1
  ret void
}

declare void @_ZNSt8ios_base4InitC1Ev(%"class.std::ios_base::Init"*) #0

declare void @_ZNSt8ios_base4InitD1Ev(%"class.std::ios_base::Init"*) #0

; Function Attrs: nounwind
declare i32 @__cxa_atexit(void (i8*)*, i8*, i8*) #1

; Function Attrs: uwtable
define void @_ZN5graph11create_nodeEv(%class.graph* %this) #2 align 2 {
  %1 = alloca %class.graph*, align 8
  %temp = alloca %"class.std::vector.0", align 8
  %stemp = alloca %"class.std::set", align 8
  %2 = alloca i8*
  %3 = alloca i32
  %4 = alloca i32, align 4
  store %class.graph* %this, %class.graph** %1, align 8
  %5 = load %class.graph** %1
  call void @_ZNSt6vectorIiSaIiEEC2Ev(%"class.std::vector.0"* %temp)
  invoke void @_ZNSt3setIiSt4lessIiESaIiEEC2Ev(%"class.std::set"* %stemp)
          to label %6 unwind label %18

; <label>:6                                       ; preds = %0
  %7 = getelementptr inbounds %class.graph* %5, i32 0, i32 0
  invoke void @_ZNSt6vectorIS_IiSaIiEESaIS1_EE9push_backERKS1_(%"class.std::vector"* %7, %"class.std::vector.0"* %temp)
          to label %8 unwind label %22

; <label>:8                                       ; preds = %6
  %9 = getelementptr inbounds %class.graph* %5, i32 0, i32 2
  invoke void @_ZNSt6vectorISt3setIiSt4lessIiESaIiEESaIS4_EE9push_backERKS4_(%"class.std::vector.9"* %9, %"class.std::set"* %stemp)
          to label %10 unwind label %22

; <label>:10                                      ; preds = %8
  %11 = getelementptr inbounds %class.graph* %5, i32 0, i32 1
  invoke void @_ZNSt6vectorIbSaIbEE9push_backEb(%"class.std::vector.5"* %11, i1 zeroext false)
          to label %12 unwind label %22

; <label>:12                                      ; preds = %10
  %13 = getelementptr inbounds %class.graph* %5, i32 0, i32 4
  store i32 -1, i32* %4
  invoke void @_ZNSt6vectorIiSaIiEE9push_backERKi(%"class.std::vector.0"* %13, i32* %4)
          to label %14 unwind label %22

; <label>:14                                      ; preds = %12
  %15 = getelementptr inbounds %class.graph* %5, i32 0, i32 5
  invoke void @_ZNSt6vectorISt3setIiSt4lessIiESaIiEESaIS4_EE9push_backERKS4_(%"class.std::vector.9"* %15, %"class.std::set"* %stemp)
          to label %16 unwind label %22

; <label>:16                                      ; preds = %14
  invoke void @_ZNSt3setIiSt4lessIiESaIiEED2Ev(%"class.std::set"* %stemp)
          to label %17 unwind label %18

; <label>:17                                      ; preds = %16
  call void @_ZNSt6vectorIiSaIiEED2Ev(%"class.std::vector.0"* %temp)
  ret void

; <label>:18                                      ; preds = %16, %0
  %19 = landingpad { i8*, i32 } personality i8* bitcast (i32 (...)* @__gxx_personality_v0 to i8*)
          cleanup
  %20 = extractvalue { i8*, i32 } %19, 0
  store i8* %20, i8** %2
  %21 = extractvalue { i8*, i32 } %19, 1
  store i32 %21, i32* %3
  br label %27

; <label>:22                                      ; preds = %14, %12, %10, %8, %6
  %23 = landingpad { i8*, i32 } personality i8* bitcast (i32 (...)* @__gxx_personality_v0 to i8*)
          cleanup
  %24 = extractvalue { i8*, i32 } %23, 0
  store i8* %24, i8** %2
  %25 = extractvalue { i8*, i32 } %23, 1
  store i32 %25, i32* %3
  invoke void @_ZNSt3setIiSt4lessIiESaIiEED2Ev(%"class.std::set"* %stemp)
          to label %26 unwind label %34

; <label>:26                                      ; preds = %22
  br label %27

; <label>:27                                      ; preds = %26, %18
  invoke void @_ZNSt6vectorIiSaIiEED2Ev(%"class.std::vector.0"* %temp)
          to label %28 unwind label %34

; <label>:28                                      ; preds = %27
  br label %29

; <label>:29                                      ; preds = %28
  %30 = load i8** %2
  %31 = load i32* %3
  %32 = insertvalue { i8*, i32 } undef, i8* %30, 0
  %33 = insertvalue { i8*, i32 } %32, i32 %31, 1
  resume { i8*, i32 } %33

; <label>:34                                      ; preds = %27, %22
  %35 = landingpad { i8*, i32 } personality i8* bitcast (i32 (...)* @__gxx_personality_v0 to i8*)
          catch i8* null
  %36 = extractvalue { i8*, i32 } %35, 0
  call void @__clang_call_terminate(i8* %36) #12
  unreachable
}

; Function Attrs: uwtable
define linkonce_odr void @_ZNSt6vectorIiSaIiEEC2Ev(%"class.std::vector.0"* %this) unnamed_addr #2 align 2 {
  %1 = alloca %"class.std::vector.0"*, align 8
  store %"class.std::vector.0"* %this, %"class.std::vector.0"** %1, align 8
  %2 = load %"class.std::vector.0"** %1
  %3 = bitcast %"class.std::vector.0"* %2 to %"struct.std::_Vector_base.1"*
  call void @_ZNSt12_Vector_baseIiSaIiEEC2Ev(%"struct.std::_Vector_base.1"* %3)
  ret void
}

; Function Attrs: uwtable
define linkonce_odr void @_ZNSt3setIiSt4lessIiESaIiEEC2Ev(%"class.std::set"* %this) unnamed_addr #2 align 2 {
  %1 = alloca %"class.std::set"*, align 8
  store %"class.std::set"* %this, %"class.std::set"** %1, align 8
  %2 = load %"class.std::set"** %1
  %3 = getelementptr inbounds %"class.std::set"* %2, i32 0, i32 0
  call void @_ZNSt8_Rb_treeIiiSt9_IdentityIiESt4lessIiESaIiEEC2Ev(%"class.std::_Rb_tree"* %3)
  ret void
}

declare i32 @__gxx_personality_v0(...)

; Function Attrs: uwtable
define linkonce_odr void @_ZNSt6vectorIS_IiSaIiEESaIS1_EE9push_backERKS1_(%"class.std::vector"* %this, %"class.std::vector.0"* %__x) #2 align 2 {
  %1 = alloca %"class.std::vector"*, align 8
  %2 = alloca %"class.std::vector.0"*, align 8
  %3 = alloca %"class.__gnu_cxx::__normal_iterator.29", align 8
  store %"class.std::vector"* %this, %"class.std::vector"** %1, align 8
  store %"class.std::vector.0"* %__x, %"class.std::vector.0"** %2, align 8
  %4 = load %"class.std::vector"** %1
  %5 = bitcast %"class.std::vector"* %4 to %"struct.std::_Vector_base"*
  %6 = getelementptr inbounds %"struct.std::_Vector_base"* %5, i32 0, i32 0
  %7 = getelementptr inbounds %"struct.std::_Vector_base<std::vector<int, std::allocator<int> >, std::allocator<std::vector<int, std::allocator<int> > > >::_Vector_impl"* %6, i32 0, i32 1
  %8 = load %"class.std::vector.0"** %7, align 8
  %9 = bitcast %"class.std::vector"* %4 to %"struct.std::_Vector_base"*
  %10 = getelementptr inbounds %"struct.std::_Vector_base"* %9, i32 0, i32 0
  %11 = getelementptr inbounds %"struct.std::_Vector_base<std::vector<int, std::allocator<int> >, std::allocator<std::vector<int, std::allocator<int> > > >::_Vector_impl"* %10, i32 0, i32 2
  %12 = load %"class.std::vector.0"** %11, align 8
  %13 = icmp ne %"class.std::vector.0"* %8, %12
  br i1 %13, label %14, label %28

; <label>:14                                      ; preds = %0
  %15 = bitcast %"class.std::vector"* %4 to %"struct.std::_Vector_base"*
  %16 = getelementptr inbounds %"struct.std::_Vector_base"* %15, i32 0, i32 0
  %17 = bitcast %"struct.std::_Vector_base<std::vector<int, std::allocator<int> >, std::allocator<std::vector<int, std::allocator<int> > > >::_Vector_impl"* %16 to %"class.std::allocator"*
  %18 = bitcast %"class.std::vector"* %4 to %"struct.std::_Vector_base"*
  %19 = getelementptr inbounds %"struct.std::_Vector_base"* %18, i32 0, i32 0
  %20 = getelementptr inbounds %"struct.std::_Vector_base<std::vector<int, std::allocator<int> >, std::allocator<std::vector<int, std::allocator<int> > > >::_Vector_impl"* %19, i32 0, i32 1
  %21 = load %"class.std::vector.0"** %20, align 8
  %22 = load %"class.std::vector.0"** %2, align 8
  call void @_ZN9__gnu_cxx14__alloc_traitsISaISt6vectorIiSaIiEEEE9constructIS3_EEvRS4_PS3_RKT_(%"class.std::allocator"* %17, %"class.std::vector.0"* %21, %"class.std::vector.0"* %22)
  %23 = bitcast %"class.std::vector"* %4 to %"struct.std::_Vector_base"*
  %24 = getelementptr inbounds %"struct.std::_Vector_base"* %23, i32 0, i32 0
  %25 = getelementptr inbounds %"struct.std::_Vector_base<std::vector<int, std::allocator<int> >, std::allocator<std::vector<int, std::allocator<int> > > >::_Vector_impl"* %24, i32 0, i32 1
  %26 = load %"class.std::vector.0"** %25, align 8
  %27 = getelementptr inbounds %"class.std::vector.0"* %26, i32 1
  store %"class.std::vector.0"* %27, %"class.std::vector.0"** %25, align 8
  br label %34

; <label>:28                                      ; preds = %0
  %29 = call %"class.std::vector.0"* @_ZNSt6vectorIS_IiSaIiEESaIS1_EE3endEv(%"class.std::vector"* %4)
  %30 = getelementptr %"class.__gnu_cxx::__normal_iterator.29"* %3, i32 0, i32 0
  store %"class.std::vector.0"* %29, %"class.std::vector.0"** %30
  %31 = load %"class.std::vector.0"** %2, align 8
  %32 = getelementptr %"class.__gnu_cxx::__normal_iterator.29"* %3, i32 0, i32 0
  %33 = load %"class.std::vector.0"** %32
  call void @_ZNSt6vectorIS_IiSaIiEESaIS1_EE13_M_insert_auxEN9__gnu_cxx17__normal_iteratorIPS1_S3_EERKS1_(%"class.std::vector"* %4, %"class.std::vector.0"* %33, %"class.std::vector.0"* %31)
  br label %34

; <label>:34                                      ; preds = %28, %14
  ret void
}

; Function Attrs: uwtable
define linkonce_odr void @_ZNSt6vectorISt3setIiSt4lessIiESaIiEESaIS4_EE9push_backERKS4_(%"class.std::vector.9"* %this, %"class.std::set"* %__x) #2 align 2 {
  %1 = alloca %"class.std::vector.9"*, align 8
  %2 = alloca %"class.std::set"*, align 8
  %3 = alloca %"class.__gnu_cxx::__normal_iterator.28", align 8
  store %"class.std::vector.9"* %this, %"class.std::vector.9"** %1, align 8
  store %"class.std::set"* %__x, %"class.std::set"** %2, align 8
  %4 = load %"class.std::vector.9"** %1
  %5 = bitcast %"class.std::vector.9"* %4 to %"struct.std::_Vector_base.10"*
  %6 = getelementptr inbounds %"struct.std::_Vector_base.10"* %5, i32 0, i32 0
  %7 = getelementptr inbounds %"struct.std::_Vector_base<std::set<int, std::less<int>, std::allocator<int> >, std::allocator<std::set<int, std::less<int>, std::allocator<int> > > >::_Vector_impl"* %6, i32 0, i32 1
  %8 = load %"class.std::set"** %7, align 8
  %9 = bitcast %"class.std::vector.9"* %4 to %"struct.std::_Vector_base.10"*
  %10 = getelementptr inbounds %"struct.std::_Vector_base.10"* %9, i32 0, i32 0
  %11 = getelementptr inbounds %"struct.std::_Vector_base<std::set<int, std::less<int>, std::allocator<int> >, std::allocator<std::set<int, std::less<int>, std::allocator<int> > > >::_Vector_impl"* %10, i32 0, i32 2
  %12 = load %"class.std::set"** %11, align 8
  %13 = icmp ne %"class.std::set"* %8, %12
  br i1 %13, label %14, label %28

; <label>:14                                      ; preds = %0
  %15 = bitcast %"class.std::vector.9"* %4 to %"struct.std::_Vector_base.10"*
  %16 = getelementptr inbounds %"struct.std::_Vector_base.10"* %15, i32 0, i32 0
  %17 = bitcast %"struct.std::_Vector_base<std::set<int, std::less<int>, std::allocator<int> >, std::allocator<std::set<int, std::less<int>, std::allocator<int> > > >::_Vector_impl"* %16 to %"class.std::allocator.11"*
  %18 = bitcast %"class.std::vector.9"* %4 to %"struct.std::_Vector_base.10"*
  %19 = getelementptr inbounds %"struct.std::_Vector_base.10"* %18, i32 0, i32 0
  %20 = getelementptr inbounds %"struct.std::_Vector_base<std::set<int, std::less<int>, std::allocator<int> >, std::allocator<std::set<int, std::less<int>, std::allocator<int> > > >::_Vector_impl"* %19, i32 0, i32 1
  %21 = load %"class.std::set"** %20, align 8
  %22 = load %"class.std::set"** %2, align 8
  call void @_ZN9__gnu_cxx14__alloc_traitsISaISt3setIiSt4lessIiESaIiEEEE9constructIS5_EEvRS6_PS5_RKT_(%"class.std::allocator.11"* %17, %"class.std::set"* %21, %"class.std::set"* %22)
  %23 = bitcast %"class.std::vector.9"* %4 to %"struct.std::_Vector_base.10"*
  %24 = getelementptr inbounds %"struct.std::_Vector_base.10"* %23, i32 0, i32 0
  %25 = getelementptr inbounds %"struct.std::_Vector_base<std::set<int, std::less<int>, std::allocator<int> >, std::allocator<std::set<int, std::less<int>, std::allocator<int> > > >::_Vector_impl"* %24, i32 0, i32 1
  %26 = load %"class.std::set"** %25, align 8
  %27 = getelementptr inbounds %"class.std::set"* %26, i32 1
  store %"class.std::set"* %27, %"class.std::set"** %25, align 8
  br label %34

; <label>:28                                      ; preds = %0
  %29 = call %"class.std::set"* @_ZNSt6vectorISt3setIiSt4lessIiESaIiEESaIS4_EE3endEv(%"class.std::vector.9"* %4)
  %30 = getelementptr %"class.__gnu_cxx::__normal_iterator.28"* %3, i32 0, i32 0
  store %"class.std::set"* %29, %"class.std::set"** %30
  %31 = load %"class.std::set"** %2, align 8
  %32 = getelementptr %"class.__gnu_cxx::__normal_iterator.28"* %3, i32 0, i32 0
  %33 = load %"class.std::set"** %32
  call void @_ZNSt6vectorISt3setIiSt4lessIiESaIiEESaIS4_EE13_M_insert_auxEN9__gnu_cxx17__normal_iteratorIPS4_S6_EERKS4_(%"class.std::vector.9"* %4, %"class.std::set"* %33, %"class.std::set"* %31)
  br label %34

; <label>:34                                      ; preds = %28, %14
  ret void
}

; Function Attrs: uwtable
define linkonce_odr void @_ZNSt6vectorIbSaIbEE9push_backEb(%"class.std::vector.5"* %this, i1 zeroext %__x) #2 align 2 {
  %1 = alloca %"class.std::vector.5"*, align 8
  %2 = alloca i8, align 1
  %3 = alloca %"struct.std::_Bit_iterator", align 8
  %4 = alloca %"struct.std::_Bit_reference", align 8
  %5 = alloca %"struct.std::_Bit_iterator", align 8
  store %"class.std::vector.5"* %this, %"class.std::vector.5"** %1, align 8
  %6 = zext i1 %__x to i8
  store i8 %6, i8* %2, align 1
  %7 = load %"class.std::vector.5"** %1
  %8 = bitcast %"class.std::vector.5"* %7 to %"struct.std::_Bvector_base"*
  %9 = getelementptr inbounds %"struct.std::_Bvector_base"* %8, i32 0, i32 0
  %10 = getelementptr inbounds %"struct.std::_Bvector_base<std::allocator<bool> >::_Bvector_impl"* %9, i32 0, i32 1
  %11 = bitcast %"struct.std::_Bit_iterator"* %10 to %"struct.std::_Bit_iterator_base"*
  %12 = getelementptr inbounds %"struct.std::_Bit_iterator_base"* %11, i32 0, i32 0
  %13 = load i64** %12, align 8
  %14 = bitcast %"class.std::vector.5"* %7 to %"struct.std::_Bvector_base"*
  %15 = getelementptr inbounds %"struct.std::_Bvector_base"* %14, i32 0, i32 0
  %16 = getelementptr inbounds %"struct.std::_Bvector_base<std::allocator<bool> >::_Bvector_impl"* %15, i32 0, i32 2
  %17 = load i64** %16, align 8
  %18 = icmp ne i64* %13, %17
  br i1 %18, label %19, label %38

; <label>:19                                      ; preds = %0
  %20 = bitcast %"class.std::vector.5"* %7 to %"struct.std::_Bvector_base"*
  %21 = getelementptr inbounds %"struct.std::_Bvector_base"* %20, i32 0, i32 0
  %22 = getelementptr inbounds %"struct.std::_Bvector_base<std::allocator<bool> >::_Bvector_impl"* %21, i32 0, i32 1
  %23 = call { i64, i64 } @_ZNSt13_Bit_iteratorppEi(%"struct.std::_Bit_iterator"* %22, i32 0)
  %24 = bitcast %"struct.std::_Bit_iterator"* %3 to { i64, i64 }*
  %25 = getelementptr { i64, i64 }* %24, i32 0, i32 0
  %26 = extractvalue { i64, i64 } %23, 0
  store i64 %26, i64* %25, align 1
  %27 = getelementptr { i64, i64 }* %24, i32 0, i32 1
  %28 = extractvalue { i64, i64 } %23, 1
  store i64 %28, i64* %27, align 1
  %29 = call { i64*, i64 } @_ZNKSt13_Bit_iteratordeEv(%"struct.std::_Bit_iterator"* %3)
  %30 = bitcast %"struct.std::_Bit_reference"* %4 to { i64*, i64 }*
  %31 = getelementptr { i64*, i64 }* %30, i32 0, i32 0
  %32 = extractvalue { i64*, i64 } %29, 0
  store i64* %32, i64** %31, align 1
  %33 = getelementptr { i64*, i64 }* %30, i32 0, i32 1
  %34 = extractvalue { i64*, i64 } %29, 1
  store i64 %34, i64* %33, align 1
  %35 = load i8* %2, align 1
  %36 = trunc i8 %35 to i1
  %37 = call %"struct.std::_Bit_reference"* @_ZNSt14_Bit_referenceaSEb(%"struct.std::_Bit_reference"* %4, i1 zeroext %36)
  br label %52

; <label>:38                                      ; preds = %0
  %39 = call { i64, i64 } @_ZNSt6vectorIbSaIbEE3endEv(%"class.std::vector.5"* %7)
  %40 = bitcast %"struct.std::_Bit_iterator"* %5 to { i64, i64 }*
  %41 = getelementptr { i64, i64 }* %40, i32 0, i32 0
  %42 = extractvalue { i64, i64 } %39, 0
  store i64 %42, i64* %41, align 1
  %43 = getelementptr { i64, i64 }* %40, i32 0, i32 1
  %44 = extractvalue { i64, i64 } %39, 1
  store i64 %44, i64* %43, align 1
  %45 = load i8* %2, align 1
  %46 = trunc i8 %45 to i1
  %47 = bitcast %"struct.std::_Bit_iterator"* %5 to { i64, i64 }*
  %48 = getelementptr { i64, i64 }* %47, i32 0, i32 0
  %49 = load i64* %48, align 1
  %50 = getelementptr { i64, i64 }* %47, i32 0, i32 1
  %51 = load i64* %50, align 1
  call void @_ZNSt6vectorIbSaIbEE13_M_insert_auxESt13_Bit_iteratorb(%"class.std::vector.5"* %7, i64 %49, i64 %51, i1 zeroext %46)
  br label %52

; <label>:52                                      ; preds = %38, %19
  ret void
}

; Function Attrs: uwtable
define linkonce_odr void @_ZNSt6vectorIiSaIiEE9push_backERKi(%"class.std::vector.0"* %this, i32* %__x) #2 align 2 {
  %1 = alloca %"class.std::vector.0"*, align 8
  %2 = alloca i32*, align 8
  %3 = alloca %"class.__gnu_cxx::__normal_iterator", align 8
  store %"class.std::vector.0"* %this, %"class.std::vector.0"** %1, align 8
  store i32* %__x, i32** %2, align 8
  %4 = load %"class.std::vector.0"** %1
  %5 = bitcast %"class.std::vector.0"* %4 to %"struct.std::_Vector_base.1"*
  %6 = getelementptr inbounds %"struct.std::_Vector_base.1"* %5, i32 0, i32 0
  %7 = getelementptr inbounds %"struct.std::_Vector_base<int, std::allocator<int> >::_Vector_impl"* %6, i32 0, i32 1
  %8 = load i32** %7, align 8
  %9 = bitcast %"class.std::vector.0"* %4 to %"struct.std::_Vector_base.1"*
  %10 = getelementptr inbounds %"struct.std::_Vector_base.1"* %9, i32 0, i32 0
  %11 = getelementptr inbounds %"struct.std::_Vector_base<int, std::allocator<int> >::_Vector_impl"* %10, i32 0, i32 2
  %12 = load i32** %11, align 8
  %13 = icmp ne i32* %8, %12
  br i1 %13, label %14, label %28

; <label>:14                                      ; preds = %0
  %15 = bitcast %"class.std::vector.0"* %4 to %"struct.std::_Vector_base.1"*
  %16 = getelementptr inbounds %"struct.std::_Vector_base.1"* %15, i32 0, i32 0
  %17 = bitcast %"struct.std::_Vector_base<int, std::allocator<int> >::_Vector_impl"* %16 to %"class.std::allocator.2"*
  %18 = bitcast %"class.std::vector.0"* %4 to %"struct.std::_Vector_base.1"*
  %19 = getelementptr inbounds %"struct.std::_Vector_base.1"* %18, i32 0, i32 0
  %20 = getelementptr inbounds %"struct.std::_Vector_base<int, std::allocator<int> >::_Vector_impl"* %19, i32 0, i32 1
  %21 = load i32** %20, align 8
  %22 = load i32** %2, align 8
  call void @_ZN9__gnu_cxx14__alloc_traitsISaIiEE9constructIiEEvRS1_PiRKT_(%"class.std::allocator.2"* %17, i32* %21, i32* %22)
  %23 = bitcast %"class.std::vector.0"* %4 to %"struct.std::_Vector_base.1"*
  %24 = getelementptr inbounds %"struct.std::_Vector_base.1"* %23, i32 0, i32 0
  %25 = getelementptr inbounds %"struct.std::_Vector_base<int, std::allocator<int> >::_Vector_impl"* %24, i32 0, i32 1
  %26 = load i32** %25, align 8
  %27 = getelementptr inbounds i32* %26, i32 1
  store i32* %27, i32** %25, align 8
  br label %34

; <label>:28                                      ; preds = %0
  %29 = call i32* @_ZNSt6vectorIiSaIiEE3endEv(%"class.std::vector.0"* %4)
  %30 = getelementptr %"class.__gnu_cxx::__normal_iterator"* %3, i32 0, i32 0
  store i32* %29, i32** %30
  %31 = load i32** %2, align 8
  %32 = getelementptr %"class.__gnu_cxx::__normal_iterator"* %3, i32 0, i32 0
  %33 = load i32** %32
  call void @_ZNSt6vectorIiSaIiEE13_M_insert_auxEN9__gnu_cxx17__normal_iteratorIPiS1_EERKi(%"class.std::vector.0"* %4, i32* %33, i32* %31)
  br label %34

; <label>:34                                      ; preds = %28, %14
  ret void
}

; Function Attrs: inlinehint uwtable
define linkonce_odr void @_ZNSt3setIiSt4lessIiESaIiEED2Ev(%"class.std::set"* %this) unnamed_addr #3 align 2 {
  %1 = alloca %"class.std::set"*, align 8
  store %"class.std::set"* %this, %"class.std::set"** %1, align 8
  %2 = load %"class.std::set"** %1
  %3 = getelementptr inbounds %"class.std::set"* %2, i32 0, i32 0
  call void @_ZNSt8_Rb_treeIiiSt9_IdentityIiESt4lessIiESaIiEED2Ev(%"class.std::_Rb_tree"* %3)
  ret void
}

; Function Attrs: noinline noreturn nounwind
define linkonce_odr hidden void @__clang_call_terminate(i8*) #4 {
  %2 = call i8* @__cxa_begin_catch(i8* %0) #1
  call void @_ZSt9terminatev() #12
  unreachable
}

declare i8* @__cxa_begin_catch(i8*)

declare void @_ZSt9terminatev()

; Function Attrs: uwtable
define linkonce_odr void @_ZNSt6vectorIiSaIiEED2Ev(%"class.std::vector.0"* %this) unnamed_addr #2 align 2 {
  %1 = alloca %"class.std::vector.0"*, align 8
  %2 = alloca i8*
  %3 = alloca i32
  store %"class.std::vector.0"* %this, %"class.std::vector.0"** %1, align 8
  %4 = load %"class.std::vector.0"** %1
  %5 = bitcast %"class.std::vector.0"* %4 to %"struct.std::_Vector_base.1"*
  %6 = getelementptr inbounds %"struct.std::_Vector_base.1"* %5, i32 0, i32 0
  %7 = getelementptr inbounds %"struct.std::_Vector_base<int, std::allocator<int> >::_Vector_impl"* %6, i32 0, i32 0
  %8 = load i32** %7, align 8
  %9 = bitcast %"class.std::vector.0"* %4 to %"struct.std::_Vector_base.1"*
  %10 = getelementptr inbounds %"struct.std::_Vector_base.1"* %9, i32 0, i32 0
  %11 = getelementptr inbounds %"struct.std::_Vector_base<int, std::allocator<int> >::_Vector_impl"* %10, i32 0, i32 1
  %12 = load i32** %11, align 8
  %13 = bitcast %"class.std::vector.0"* %4 to %"struct.std::_Vector_base.1"*
  %14 = invoke %"class.std::allocator.2"* @_ZNSt12_Vector_baseIiSaIiEE19_M_get_Tp_allocatorEv(%"struct.std::_Vector_base.1"* %13)
          to label %15 unwind label %18

; <label>:15                                      ; preds = %0
  invoke void @_ZSt8_DestroyIPiiEvT_S1_RSaIT0_E(i32* %8, i32* %12, %"class.std::allocator.2"* %14)
          to label %16 unwind label %18

; <label>:16                                      ; preds = %15
  %17 = bitcast %"class.std::vector.0"* %4 to %"struct.std::_Vector_base.1"*
  call void @_ZNSt12_Vector_baseIiSaIiEED2Ev(%"struct.std::_Vector_base.1"* %17)
  ret void

; <label>:18                                      ; preds = %15, %0
  %19 = landingpad { i8*, i32 } personality i8* bitcast (i32 (...)* @__gxx_personality_v0 to i8*)
          cleanup
  %20 = extractvalue { i8*, i32 } %19, 0
  store i8* %20, i8** %2
  %21 = extractvalue { i8*, i32 } %19, 1
  store i32 %21, i32* %3
  %22 = bitcast %"class.std::vector.0"* %4 to %"struct.std::_Vector_base.1"*
  invoke void @_ZNSt12_Vector_baseIiSaIiEED2Ev(%"struct.std::_Vector_base.1"* %22)
          to label %23 unwind label %29

; <label>:23                                      ; preds = %18
  br label %24

; <label>:24                                      ; preds = %23
  %25 = load i8** %2
  %26 = load i32* %3
  %27 = insertvalue { i8*, i32 } undef, i8* %25, 0
  %28 = insertvalue { i8*, i32 } %27, i32 %26, 1
  resume { i8*, i32 } %28

; <label>:29                                      ; preds = %18
  %30 = landingpad { i8*, i32 } personality i8* bitcast (i32 (...)* @__gxx_personality_v0 to i8*)
          catch i8* null
  %31 = extractvalue { i8*, i32 } %30, 0
  call void @__clang_call_terminate(i8* %31) #12
  unreachable
}

; Function Attrs: uwtable
define zeroext i1 @_ZN5graph15dominator_checkEii(%class.graph* %this, i32 %tocheck, i32 %inset) #2 align 2 {
  %1 = alloca i1, align 1
  %2 = alloca %class.graph*, align 8
  %3 = alloca i32, align 4
  %4 = alloca i32, align 4
  %5 = alloca %"struct.std::_Rb_tree_const_iterator", align 8
  %6 = alloca %"struct.std::_Rb_tree_const_iterator", align 8
  store %class.graph* %this, %class.graph** %2, align 8
  store i32 %tocheck, i32* %3, align 4
  store i32 %inset, i32* %4, align 4
  %7 = load %class.graph** %2
  %8 = getelementptr inbounds %class.graph* %7, i32 0, i32 2
  %9 = load i32* %4, align 4
  %10 = sext i32 %9 to i64
  %11 = call %"class.std::set"* @_ZNSt6vectorISt3setIiSt4lessIiESaIiEESaIS4_EEixEm(%"class.std::vector.9"* %8, i64 %10)
  %12 = call %"struct.std::_Rb_tree_node_base"* @_ZNSt3setIiSt4lessIiESaIiEE4findERKi(%"class.std::set"* %11, i32* %3)
  %13 = getelementptr %"struct.std::_Rb_tree_const_iterator"* %5, i32 0, i32 0
  store %"struct.std::_Rb_tree_node_base"* %12, %"struct.std::_Rb_tree_node_base"** %13
  %14 = getelementptr inbounds %class.graph* %7, i32 0, i32 2
  %15 = load i32* %4, align 4
  %16 = sext i32 %15 to i64
  %17 = call %"class.std::set"* @_ZNSt6vectorISt3setIiSt4lessIiESaIiEESaIS4_EEixEm(%"class.std::vector.9"* %14, i64 %16)
  %18 = call %"struct.std::_Rb_tree_node_base"* @_ZNKSt3setIiSt4lessIiESaIiEE3endEv(%"class.std::set"* %17)
  %19 = getelementptr %"struct.std::_Rb_tree_const_iterator"* %6, i32 0, i32 0
  store %"struct.std::_Rb_tree_node_base"* %18, %"struct.std::_Rb_tree_node_base"** %19
  %20 = call zeroext i1 @_ZNKSt23_Rb_tree_const_iteratorIiEeqERKS0_(%"struct.std::_Rb_tree_const_iterator"* %5, %"struct.std::_Rb_tree_const_iterator"* %6)
  br i1 %20, label %21, label %22

; <label>:21                                      ; preds = %0
  store i1 false, i1* %1
  br label %23

; <label>:22                                      ; preds = %0
  store i1 true, i1* %1
  br label %23

; <label>:23                                      ; preds = %22, %21
  %24 = load i1* %1
  ret i1 %24
}

; Function Attrs: nounwind uwtable
define linkonce_odr %"class.std::set"* @_ZNSt6vectorISt3setIiSt4lessIiESaIiEESaIS4_EEixEm(%"class.std::vector.9"* %this, i64 %__n) #5 align 2 {
  %1 = alloca %"class.std::vector.9"*, align 8
  %2 = alloca i64, align 8
  store %"class.std::vector.9"* %this, %"class.std::vector.9"** %1, align 8
  store i64 %__n, i64* %2, align 8
  %3 = load %"class.std::vector.9"** %1
  %4 = bitcast %"class.std::vector.9"* %3 to %"struct.std::_Vector_base.10"*
  %5 = getelementptr inbounds %"struct.std::_Vector_base.10"* %4, i32 0, i32 0
  %6 = getelementptr inbounds %"struct.std::_Vector_base<std::set<int, std::less<int>, std::allocator<int> >, std::allocator<std::set<int, std::less<int>, std::allocator<int> > > >::_Vector_impl"* %5, i32 0, i32 0
  %7 = load %"class.std::set"** %6, align 8
  %8 = load i64* %2, align 8
  %9 = getelementptr inbounds %"class.std::set"* %7, i64 %8
  ret %"class.std::set"* %9
}

; Function Attrs: uwtable
define linkonce_odr %"struct.std::_Rb_tree_node_base"* @_ZNSt3setIiSt4lessIiESaIiEE4findERKi(%"class.std::set"* %this, i32* %__x) #2 align 2 {
  %1 = alloca %"struct.std::_Rb_tree_const_iterator", align 8
  %2 = alloca %"class.std::set"*, align 8
  %3 = alloca i32*, align 8
  %4 = alloca %"struct.std::_Rb_tree_iterator", align 8
  store %"class.std::set"* %this, %"class.std::set"** %2, align 8
  store i32* %__x, i32** %3, align 8
  %5 = load %"class.std::set"** %2
  %6 = getelementptr inbounds %"class.std::set"* %5, i32 0, i32 0
  %7 = load i32** %3, align 8
  %8 = call %"struct.std::_Rb_tree_node_base"* @_ZNSt8_Rb_treeIiiSt9_IdentityIiESt4lessIiESaIiEE4findERKi(%"class.std::_Rb_tree"* %6, i32* %7)
  %9 = getelementptr %"struct.std::_Rb_tree_iterator"* %4, i32 0, i32 0
  store %"struct.std::_Rb_tree_node_base"* %8, %"struct.std::_Rb_tree_node_base"** %9
  call void @_ZNSt23_Rb_tree_const_iteratorIiEC2ERKSt17_Rb_tree_iteratorIiE(%"struct.std::_Rb_tree_const_iterator"* %1, %"struct.std::_Rb_tree_iterator"* %4)
  %10 = getelementptr %"struct.std::_Rb_tree_const_iterator"* %1, i32 0, i32 0
  %11 = load %"struct.std::_Rb_tree_node_base"** %10
  ret %"struct.std::_Rb_tree_node_base"* %11
}

; Function Attrs: nounwind uwtable
define linkonce_odr zeroext i1 @_ZNKSt23_Rb_tree_const_iteratorIiEeqERKS0_(%"struct.std::_Rb_tree_const_iterator"* %this, %"struct.std::_Rb_tree_const_iterator"* %__x) #5 align 2 {
  %1 = alloca %"struct.std::_Rb_tree_const_iterator"*, align 8
  %2 = alloca %"struct.std::_Rb_tree_const_iterator"*, align 8
  store %"struct.std::_Rb_tree_const_iterator"* %this, %"struct.std::_Rb_tree_const_iterator"** %1, align 8
  store %"struct.std::_Rb_tree_const_iterator"* %__x, %"struct.std::_Rb_tree_const_iterator"** %2, align 8
  %3 = load %"struct.std::_Rb_tree_const_iterator"** %1
  %4 = getelementptr inbounds %"struct.std::_Rb_tree_const_iterator"* %3, i32 0, i32 0
  %5 = load %"struct.std::_Rb_tree_node_base"** %4, align 8
  %6 = load %"struct.std::_Rb_tree_const_iterator"** %2, align 8
  %7 = getelementptr inbounds %"struct.std::_Rb_tree_const_iterator"* %6, i32 0, i32 0
  %8 = load %"struct.std::_Rb_tree_node_base"** %7, align 8
  %9 = icmp eq %"struct.std::_Rb_tree_node_base"* %5, %8
  ret i1 %9
}

; Function Attrs: uwtable
define linkonce_odr %"struct.std::_Rb_tree_node_base"* @_ZNKSt3setIiSt4lessIiESaIiEE3endEv(%"class.std::set"* %this) #2 align 2 {
  %1 = alloca %"struct.std::_Rb_tree_const_iterator", align 8
  %2 = alloca %"class.std::set"*, align 8
  store %"class.std::set"* %this, %"class.std::set"** %2, align 8
  %3 = load %"class.std::set"** %2
  %4 = getelementptr inbounds %"class.std::set"* %3, i32 0, i32 0
  %5 = call %"struct.std::_Rb_tree_node_base"* @_ZNKSt8_Rb_treeIiiSt9_IdentityIiESt4lessIiESaIiEE3endEv(%"class.std::_Rb_tree"* %4)
  %6 = getelementptr %"struct.std::_Rb_tree_const_iterator"* %1, i32 0, i32 0
  store %"struct.std::_Rb_tree_node_base"* %5, %"struct.std::_Rb_tree_node_base"** %6
  %7 = getelementptr %"struct.std::_Rb_tree_const_iterator"* %1, i32 0, i32 0
  %8 = load %"struct.std::_Rb_tree_node_base"** %7
  ret %"struct.std::_Rb_tree_node_base"* %8
}

; Function Attrs: uwtable
define void @_ZN5graphC2Ei(%class.graph* %this, i32 %n) unnamed_addr #2 align 2 {
  %1 = alloca %class.graph*, align 8
  %2 = alloca i32, align 4
  %3 = alloca i8*
  %4 = alloca i32
  %i = alloca i32, align 4
  %5 = alloca %"struct.std::pair", align 8
  store %class.graph* %this, %class.graph** %1, align 8
  store i32 %n, i32* %2, align 4
  %6 = load %class.graph** %1
  %7 = getelementptr inbounds %class.graph* %6, i32 0, i32 0
  call void @_ZNSt6vectorIS_IiSaIiEESaIS1_EEC2Ev(%"class.std::vector"* %7)
  %8 = getelementptr inbounds %class.graph* %6, i32 0, i32 1
  invoke void @_ZNSt6vectorIbSaIbEEC2Ev(%"class.std::vector.5"* %8)
          to label %9 unwind label %41

; <label>:9                                       ; preds = %0
  %10 = getelementptr inbounds %class.graph* %6, i32 0, i32 2
  invoke void @_ZNSt6vectorISt3setIiSt4lessIiESaIiEESaIS4_EEC2Ev(%"class.std::vector.9"* %10)
          to label %11 unwind label %45

; <label>:11                                      ; preds = %9
  %12 = getelementptr inbounds %class.graph* %6, i32 0, i32 3
  invoke void @_ZNSt6vectorISt3setIiSt4lessIiESaIiEESaIS4_EEC2Ev(%"class.std::vector.9"* %12)
          to label %13 unwind label %49

; <label>:13                                      ; preds = %11
  %14 = getelementptr inbounds %class.graph* %6, i32 0, i32 4
  invoke void @_ZNSt6vectorIiSaIiEEC2Ev(%"class.std::vector.0"* %14)
          to label %15 unwind label %53

; <label>:15                                      ; preds = %13
  %16 = getelementptr inbounds %class.graph* %6, i32 0, i32 5
  invoke void @_ZNSt6vectorISt3setIiSt4lessIiESaIiEESaIS4_EEC2Ev(%"class.std::vector.9"* %16)
          to label %17 unwind label %57

; <label>:17                                      ; preds = %15
  %18 = getelementptr inbounds %class.graph* %6, i32 0, i32 6
  store i32 0, i32* %18, align 4
  store i32 0, i32* %i, align 4
  br label %19

; <label>:19                                      ; preds = %38, %17
  %20 = load i32* %i, align 4
  %21 = load i32* %2, align 4
  %22 = add nsw i32 %21, 1
  %23 = icmp sle i32 %20, %22
  br i1 %23, label %24, label %65

; <label>:24                                      ; preds = %19
  invoke void @_ZN5graph11create_nodeEv(%class.graph* %6)
          to label %25 unwind label %61

; <label>:25                                      ; preds = %24
  %26 = getelementptr inbounds %class.graph* %6, i32 0, i32 2
  %27 = load i32* %i, align 4
  %28 = sext i32 %27 to i64
  %29 = invoke %"class.std::set"* @_ZNSt6vectorISt3setIiSt4lessIiESaIiEESaIS4_EEixEm(%"class.std::vector.9"* %26, i64 %28)
          to label %30 unwind label %61

; <label>:30                                      ; preds = %25
  %31 = invoke { %"struct.std::_Rb_tree_node_base"*, i8 } @_ZNSt3setIiSt4lessIiESaIiEE6insertERKi(%"class.std::set"* %29, i32* %i)
          to label %32 unwind label %61

; <label>:32                                      ; preds = %30
  %33 = bitcast %"struct.std::pair"* %5 to { %"struct.std::_Rb_tree_node_base"*, i8 }*
  %34 = getelementptr { %"struct.std::_Rb_tree_node_base"*, i8 }* %33, i32 0, i32 0
  %35 = extractvalue { %"struct.std::_Rb_tree_node_base"*, i8 } %31, 0
  store %"struct.std::_Rb_tree_node_base"* %35, %"struct.std::_Rb_tree_node_base"** %34, align 1
  %36 = getelementptr { %"struct.std::_Rb_tree_node_base"*, i8 }* %33, i32 0, i32 1
  %37 = extractvalue { %"struct.std::_Rb_tree_node_base"*, i8 } %31, 1
  store i8 %37, i8* %36, align 1
  br label %38

; <label>:38                                      ; preds = %32
  %39 = load i32* %i, align 4
  %40 = add nsw i32 %39, 1
  store i32 %40, i32* %i, align 4
  br label %19

; <label>:41                                      ; preds = %0
  %42 = landingpad { i8*, i32 } personality i8* bitcast (i32 (...)* @__gxx_personality_v0 to i8*)
          cleanup
  %43 = extractvalue { i8*, i32 } %42, 0
  store i8* %43, i8** %3
  %44 = extractvalue { i8*, i32 } %42, 1
  store i32 %44, i32* %4
  br label %75

; <label>:45                                      ; preds = %9
  %46 = landingpad { i8*, i32 } personality i8* bitcast (i32 (...)* @__gxx_personality_v0 to i8*)
          cleanup
  %47 = extractvalue { i8*, i32 } %46, 0
  store i8* %47, i8** %3
  %48 = extractvalue { i8*, i32 } %46, 1
  store i32 %48, i32* %4
  br label %73

; <label>:49                                      ; preds = %11
  %50 = landingpad { i8*, i32 } personality i8* bitcast (i32 (...)* @__gxx_personality_v0 to i8*)
          cleanup
  %51 = extractvalue { i8*, i32 } %50, 0
  store i8* %51, i8** %3
  %52 = extractvalue { i8*, i32 } %50, 1
  store i32 %52, i32* %4
  br label %71

; <label>:53                                      ; preds = %13
  %54 = landingpad { i8*, i32 } personality i8* bitcast (i32 (...)* @__gxx_personality_v0 to i8*)
          cleanup
  %55 = extractvalue { i8*, i32 } %54, 0
  store i8* %55, i8** %3
  %56 = extractvalue { i8*, i32 } %54, 1
  store i32 %56, i32* %4
  br label %69

; <label>:57                                      ; preds = %15
  %58 = landingpad { i8*, i32 } personality i8* bitcast (i32 (...)* @__gxx_personality_v0 to i8*)
          cleanup
  %59 = extractvalue { i8*, i32 } %58, 0
  store i8* %59, i8** %3
  %60 = extractvalue { i8*, i32 } %58, 1
  store i32 %60, i32* %4
  br label %67

; <label>:61                                      ; preds = %30, %25, %24
  %62 = landingpad { i8*, i32 } personality i8* bitcast (i32 (...)* @__gxx_personality_v0 to i8*)
          cleanup
  %63 = extractvalue { i8*, i32 } %62, 0
  store i8* %63, i8** %3
  %64 = extractvalue { i8*, i32 } %62, 1
  store i32 %64, i32* %4
  invoke void @_ZNSt6vectorISt3setIiSt4lessIiESaIiEESaIS4_EED2Ev(%"class.std::vector.9"* %16)
          to label %66 unwind label %82

; <label>:65                                      ; preds = %19
  ret void

; <label>:66                                      ; preds = %61
  br label %67

; <label>:67                                      ; preds = %66, %57
  invoke void @_ZNSt6vectorIiSaIiEED2Ev(%"class.std::vector.0"* %14)
          to label %68 unwind label %82

; <label>:68                                      ; preds = %67
  br label %69

; <label>:69                                      ; preds = %68, %53
  invoke void @_ZNSt6vectorISt3setIiSt4lessIiESaIiEESaIS4_EED2Ev(%"class.std::vector.9"* %12)
          to label %70 unwind label %82

; <label>:70                                      ; preds = %69
  br label %71

; <label>:71                                      ; preds = %70, %49
  invoke void @_ZNSt6vectorISt3setIiSt4lessIiESaIiEESaIS4_EED2Ev(%"class.std::vector.9"* %10)
          to label %72 unwind label %82

; <label>:72                                      ; preds = %71
  br label %73

; <label>:73                                      ; preds = %72, %45
  invoke void @_ZNSt6vectorIbSaIbEED2Ev(%"class.std::vector.5"* %8)
          to label %74 unwind label %82

; <label>:74                                      ; preds = %73
  br label %75

; <label>:75                                      ; preds = %74, %41
  invoke void @_ZNSt6vectorIS_IiSaIiEESaIS1_EED2Ev(%"class.std::vector"* %7)
          to label %76 unwind label %82

; <label>:76                                      ; preds = %75
  br label %77

; <label>:77                                      ; preds = %76
  %78 = load i8** %3
  %79 = load i32* %4
  %80 = insertvalue { i8*, i32 } undef, i8* %78, 0
  %81 = insertvalue { i8*, i32 } %80, i32 %79, 1
  resume { i8*, i32 } %81

; <label>:82                                      ; preds = %75, %73, %71, %69, %67, %61
  %83 = landingpad { i8*, i32 } personality i8* bitcast (i32 (...)* @__gxx_personality_v0 to i8*)
          catch i8* null
  %84 = extractvalue { i8*, i32 } %83, 0
  call void @__clang_call_terminate(i8* %84) #12
  unreachable
}

; Function Attrs: uwtable
define linkonce_odr void @_ZNSt6vectorIS_IiSaIiEESaIS1_EEC2Ev(%"class.std::vector"* %this) unnamed_addr #2 align 2 {
  %1 = alloca %"class.std::vector"*, align 8
  store %"class.std::vector"* %this, %"class.std::vector"** %1, align 8
  %2 = load %"class.std::vector"** %1
  %3 = bitcast %"class.std::vector"* %2 to %"struct.std::_Vector_base"*
  call void @_ZNSt12_Vector_baseISt6vectorIiSaIiEESaIS2_EEC2Ev(%"struct.std::_Vector_base"* %3)
  ret void
}

; Function Attrs: uwtable
define linkonce_odr void @_ZNSt6vectorIbSaIbEEC2Ev(%"class.std::vector.5"* %this) unnamed_addr #2 align 2 {
  %1 = alloca %"class.std::vector.5"*, align 8
  store %"class.std::vector.5"* %this, %"class.std::vector.5"** %1, align 8
  %2 = load %"class.std::vector.5"** %1
  %3 = bitcast %"class.std::vector.5"* %2 to %"struct.std::_Bvector_base"*
  call void @_ZNSt13_Bvector_baseISaIbEEC2Ev(%"struct.std::_Bvector_base"* %3)
  ret void
}

; Function Attrs: uwtable
define linkonce_odr void @_ZNSt6vectorISt3setIiSt4lessIiESaIiEESaIS4_EEC2Ev(%"class.std::vector.9"* %this) unnamed_addr #2 align 2 {
  %1 = alloca %"class.std::vector.9"*, align 8
  store %"class.std::vector.9"* %this, %"class.std::vector.9"** %1, align 8
  %2 = load %"class.std::vector.9"** %1
  %3 = bitcast %"class.std::vector.9"* %2 to %"struct.std::_Vector_base.10"*
  call void @_ZNSt12_Vector_baseISt3setIiSt4lessIiESaIiEESaIS4_EEC2Ev(%"struct.std::_Vector_base.10"* %3)
  ret void
}

; Function Attrs: uwtable
define linkonce_odr { %"struct.std::_Rb_tree_node_base"*, i8 } @_ZNSt3setIiSt4lessIiESaIiEE6insertERKi(%"class.std::set"* %this, i32* %__x) #2 align 2 {
  %1 = alloca %"struct.std::pair", align 8
  %2 = alloca %"class.std::set"*, align 8
  %3 = alloca i32*, align 8
  %__p = alloca %"struct.std::pair.27", align 8
  %4 = alloca %"struct.std::_Rb_tree_const_iterator", align 8
  store %"class.std::set"* %this, %"class.std::set"** %2, align 8
  store i32* %__x, i32** %3, align 8
  %5 = load %"class.std::set"** %2
  %6 = getelementptr inbounds %"class.std::set"* %5, i32 0, i32 0
  %7 = load i32** %3, align 8
  %8 = call { %"struct.std::_Rb_tree_node_base"*, i8 } @_ZNSt8_Rb_treeIiiSt9_IdentityIiESt4lessIiESaIiEE16_M_insert_uniqueERKi(%"class.std::_Rb_tree"* %6, i32* %7)
  %9 = bitcast %"struct.std::pair.27"* %__p to { %"struct.std::_Rb_tree_node_base"*, i8 }*
  %10 = getelementptr { %"struct.std::_Rb_tree_node_base"*, i8 }* %9, i32 0, i32 0
  %11 = extractvalue { %"struct.std::_Rb_tree_node_base"*, i8 } %8, 0
  store %"struct.std::_Rb_tree_node_base"* %11, %"struct.std::_Rb_tree_node_base"** %10, align 1
  %12 = getelementptr { %"struct.std::_Rb_tree_node_base"*, i8 }* %9, i32 0, i32 1
  %13 = extractvalue { %"struct.std::_Rb_tree_node_base"*, i8 } %8, 1
  store i8 %13, i8* %12, align 1
  %14 = getelementptr inbounds %"struct.std::pair.27"* %__p, i32 0, i32 0
  call void @_ZNSt23_Rb_tree_const_iteratorIiEC2ERKSt17_Rb_tree_iteratorIiE(%"struct.std::_Rb_tree_const_iterator"* %4, %"struct.std::_Rb_tree_iterator"* %14)
  %15 = getelementptr inbounds %"struct.std::pair.27"* %__p, i32 0, i32 1
  call void @_ZNSt4pairISt23_Rb_tree_const_iteratorIiEbEC2ERKS1_RKb(%"struct.std::pair"* %1, %"struct.std::_Rb_tree_const_iterator"* %4, i8* %15)
  %16 = bitcast %"struct.std::pair"* %1 to { %"struct.std::_Rb_tree_node_base"*, i8 }*
  %17 = load { %"struct.std::_Rb_tree_node_base"*, i8 }* %16, align 1
  ret { %"struct.std::_Rb_tree_node_base"*, i8 } %17
}

; Function Attrs: uwtable
define linkonce_odr void @_ZNSt6vectorISt3setIiSt4lessIiESaIiEESaIS4_EED2Ev(%"class.std::vector.9"* %this) unnamed_addr #2 align 2 {
  %1 = alloca %"class.std::vector.9"*, align 8
  %2 = alloca i8*
  %3 = alloca i32
  store %"class.std::vector.9"* %this, %"class.std::vector.9"** %1, align 8
  %4 = load %"class.std::vector.9"** %1
  %5 = bitcast %"class.std::vector.9"* %4 to %"struct.std::_Vector_base.10"*
  %6 = getelementptr inbounds %"struct.std::_Vector_base.10"* %5, i32 0, i32 0
  %7 = getelementptr inbounds %"struct.std::_Vector_base<std::set<int, std::less<int>, std::allocator<int> >, std::allocator<std::set<int, std::less<int>, std::allocator<int> > > >::_Vector_impl"* %6, i32 0, i32 0
  %8 = load %"class.std::set"** %7, align 8
  %9 = bitcast %"class.std::vector.9"* %4 to %"struct.std::_Vector_base.10"*
  %10 = getelementptr inbounds %"struct.std::_Vector_base.10"* %9, i32 0, i32 0
  %11 = getelementptr inbounds %"struct.std::_Vector_base<std::set<int, std::less<int>, std::allocator<int> >, std::allocator<std::set<int, std::less<int>, std::allocator<int> > > >::_Vector_impl"* %10, i32 0, i32 1
  %12 = load %"class.std::set"** %11, align 8
  %13 = bitcast %"class.std::vector.9"* %4 to %"struct.std::_Vector_base.10"*
  %14 = invoke %"class.std::allocator.11"* @_ZNSt12_Vector_baseISt3setIiSt4lessIiESaIiEESaIS4_EE19_M_get_Tp_allocatorEv(%"struct.std::_Vector_base.10"* %13)
          to label %15 unwind label %18

; <label>:15                                      ; preds = %0
  invoke void @_ZSt8_DestroyIPSt3setIiSt4lessIiESaIiEES4_EvT_S6_RSaIT0_E(%"class.std::set"* %8, %"class.std::set"* %12, %"class.std::allocator.11"* %14)
          to label %16 unwind label %18

; <label>:16                                      ; preds = %15
  %17 = bitcast %"class.std::vector.9"* %4 to %"struct.std::_Vector_base.10"*
  call void @_ZNSt12_Vector_baseISt3setIiSt4lessIiESaIiEESaIS4_EED2Ev(%"struct.std::_Vector_base.10"* %17)
  ret void

; <label>:18                                      ; preds = %15, %0
  %19 = landingpad { i8*, i32 } personality i8* bitcast (i32 (...)* @__gxx_personality_v0 to i8*)
          cleanup
  %20 = extractvalue { i8*, i32 } %19, 0
  store i8* %20, i8** %2
  %21 = extractvalue { i8*, i32 } %19, 1
  store i32 %21, i32* %3
  %22 = bitcast %"class.std::vector.9"* %4 to %"struct.std::_Vector_base.10"*
  invoke void @_ZNSt12_Vector_baseISt3setIiSt4lessIiESaIiEESaIS4_EED2Ev(%"struct.std::_Vector_base.10"* %22)
          to label %23 unwind label %29

; <label>:23                                      ; preds = %18
  br label %24

; <label>:24                                      ; preds = %23
  %25 = load i8** %2
  %26 = load i32* %3
  %27 = insertvalue { i8*, i32 } undef, i8* %25, 0
  %28 = insertvalue { i8*, i32 } %27, i32 %26, 1
  resume { i8*, i32 } %28

; <label>:29                                      ; preds = %18
  %30 = landingpad { i8*, i32 } personality i8* bitcast (i32 (...)* @__gxx_personality_v0 to i8*)
          catch i8* null
  %31 = extractvalue { i8*, i32 } %30, 0
  call void @__clang_call_terminate(i8* %31) #12
  unreachable
}

; Function Attrs: uwtable
define linkonce_odr void @_ZNSt6vectorIbSaIbEED2Ev(%"class.std::vector.5"* %this) unnamed_addr #2 align 2 {
  %1 = alloca %"class.std::vector.5"*, align 8
  store %"class.std::vector.5"* %this, %"class.std::vector.5"** %1, align 8
  %2 = load %"class.std::vector.5"** %1
  %3 = bitcast %"class.std::vector.5"* %2 to %"struct.std::_Bvector_base"*
  call void @_ZNSt13_Bvector_baseISaIbEED2Ev(%"struct.std::_Bvector_base"* %3)
  ret void
}

; Function Attrs: uwtable
define linkonce_odr void @_ZNSt6vectorIS_IiSaIiEESaIS1_EED2Ev(%"class.std::vector"* %this) unnamed_addr #2 align 2 {
  %1 = alloca %"class.std::vector"*, align 8
  %2 = alloca i8*
  %3 = alloca i32
  store %"class.std::vector"* %this, %"class.std::vector"** %1, align 8
  %4 = load %"class.std::vector"** %1
  %5 = bitcast %"class.std::vector"* %4 to %"struct.std::_Vector_base"*
  %6 = getelementptr inbounds %"struct.std::_Vector_base"* %5, i32 0, i32 0
  %7 = getelementptr inbounds %"struct.std::_Vector_base<std::vector<int, std::allocator<int> >, std::allocator<std::vector<int, std::allocator<int> > > >::_Vector_impl"* %6, i32 0, i32 0
  %8 = load %"class.std::vector.0"** %7, align 8
  %9 = bitcast %"class.std::vector"* %4 to %"struct.std::_Vector_base"*
  %10 = getelementptr inbounds %"struct.std::_Vector_base"* %9, i32 0, i32 0
  %11 = getelementptr inbounds %"struct.std::_Vector_base<std::vector<int, std::allocator<int> >, std::allocator<std::vector<int, std::allocator<int> > > >::_Vector_impl"* %10, i32 0, i32 1
  %12 = load %"class.std::vector.0"** %11, align 8
  %13 = bitcast %"class.std::vector"* %4 to %"struct.std::_Vector_base"*
  %14 = invoke %"class.std::allocator"* @_ZNSt12_Vector_baseISt6vectorIiSaIiEESaIS2_EE19_M_get_Tp_allocatorEv(%"struct.std::_Vector_base"* %13)
          to label %15 unwind label %18

; <label>:15                                      ; preds = %0
  invoke void @_ZSt8_DestroyIPSt6vectorIiSaIiEES2_EvT_S4_RSaIT0_E(%"class.std::vector.0"* %8, %"class.std::vector.0"* %12, %"class.std::allocator"* %14)
          to label %16 unwind label %18

; <label>:16                                      ; preds = %15
  %17 = bitcast %"class.std::vector"* %4 to %"struct.std::_Vector_base"*
  call void @_ZNSt12_Vector_baseISt6vectorIiSaIiEESaIS2_EED2Ev(%"struct.std::_Vector_base"* %17)
  ret void

; <label>:18                                      ; preds = %15, %0
  %19 = landingpad { i8*, i32 } personality i8* bitcast (i32 (...)* @__gxx_personality_v0 to i8*)
          cleanup
  %20 = extractvalue { i8*, i32 } %19, 0
  store i8* %20, i8** %2
  %21 = extractvalue { i8*, i32 } %19, 1
  store i32 %21, i32* %3
  %22 = bitcast %"class.std::vector"* %4 to %"struct.std::_Vector_base"*
  invoke void @_ZNSt12_Vector_baseISt6vectorIiSaIiEESaIS2_EED2Ev(%"struct.std::_Vector_base"* %22)
          to label %23 unwind label %29

; <label>:23                                      ; preds = %18
  br label %24

; <label>:24                                      ; preds = %23
  %25 = load i8** %2
  %26 = load i32* %3
  %27 = insertvalue { i8*, i32 } undef, i8* %25, 0
  %28 = insertvalue { i8*, i32 } %27, i32 %26, 1
  resume { i8*, i32 } %28

; <label>:29                                      ; preds = %18
  %30 = landingpad { i8*, i32 } personality i8* bitcast (i32 (...)* @__gxx_personality_v0 to i8*)
          catch i8* null
  %31 = extractvalue { i8*, i32 } %30, 0
  call void @__clang_call_terminate(i8* %31) #12
  unreachable
}

; Function Attrs: uwtable
define i32 @_ZN5graph8get_destEii(%class.graph* %this, i32 %i, i32 %j) #2 align 2 {
  %1 = alloca i32, align 4
  %2 = alloca %class.graph*, align 8
  %3 = alloca i32, align 4
  %4 = alloca i32, align 4
  store %class.graph* %this, %class.graph** %2, align 8
  store i32 %i, i32* %3, align 4
  store i32 %j, i32* %4, align 4
  %5 = load %class.graph** %2
  %6 = load i32* %4, align 4
  %7 = sext i32 %6 to i64
  %8 = getelementptr inbounds %class.graph* %5, i32 0, i32 0
  %9 = load i32* %3, align 4
  %10 = sext i32 %9 to i64
  %11 = call %"class.std::vector.0"* @_ZNSt6vectorIS_IiSaIiEESaIS1_EEixEm(%"class.std::vector"* %8, i64 %10)
  %12 = call i64 @_ZNKSt6vectorIiSaIiEE4sizeEv(%"class.std::vector.0"* %11)
  %13 = icmp ult i64 %7, %12
  br i1 %13, label %14, label %23

; <label>:14                                      ; preds = %0
  %15 = getelementptr inbounds %class.graph* %5, i32 0, i32 0
  %16 = load i32* %3, align 4
  %17 = sext i32 %16 to i64
  %18 = call %"class.std::vector.0"* @_ZNSt6vectorIS_IiSaIiEESaIS1_EEixEm(%"class.std::vector"* %15, i64 %17)
  %19 = load i32* %4, align 4
  %20 = sext i32 %19 to i64
  %21 = call i32* @_ZNSt6vectorIiSaIiEEixEm(%"class.std::vector.0"* %18, i64 %20)
  %22 = load i32* %21
  store i32 %22, i32* %1
  br label %24

; <label>:23                                      ; preds = %0
  store i32 -1, i32* %1
  br label %24

; <label>:24                                      ; preds = %23, %14
  %25 = load i32* %1
  ret i32 %25
}

; Function Attrs: nounwind uwtable
define linkonce_odr %"class.std::vector.0"* @_ZNSt6vectorIS_IiSaIiEESaIS1_EEixEm(%"class.std::vector"* %this, i64 %__n) #5 align 2 {
  %1 = alloca %"class.std::vector"*, align 8
  %2 = alloca i64, align 8
  store %"class.std::vector"* %this, %"class.std::vector"** %1, align 8
  store i64 %__n, i64* %2, align 8
  %3 = load %"class.std::vector"** %1
  %4 = bitcast %"class.std::vector"* %3 to %"struct.std::_Vector_base"*
  %5 = getelementptr inbounds %"struct.std::_Vector_base"* %4, i32 0, i32 0
  %6 = getelementptr inbounds %"struct.std::_Vector_base<std::vector<int, std::allocator<int> >, std::allocator<std::vector<int, std::allocator<int> > > >::_Vector_impl"* %5, i32 0, i32 0
  %7 = load %"class.std::vector.0"** %6, align 8
  %8 = load i64* %2, align 8
  %9 = getelementptr inbounds %"class.std::vector.0"* %7, i64 %8
  ret %"class.std::vector.0"* %9
}

; Function Attrs: nounwind uwtable
define linkonce_odr i64 @_ZNKSt6vectorIiSaIiEE4sizeEv(%"class.std::vector.0"* %this) #5 align 2 {
  %1 = alloca %"class.std::vector.0"*, align 8
  store %"class.std::vector.0"* %this, %"class.std::vector.0"** %1, align 8
  %2 = load %"class.std::vector.0"** %1
  %3 = bitcast %"class.std::vector.0"* %2 to %"struct.std::_Vector_base.1"*
  %4 = getelementptr inbounds %"struct.std::_Vector_base.1"* %3, i32 0, i32 0
  %5 = getelementptr inbounds %"struct.std::_Vector_base<int, std::allocator<int> >::_Vector_impl"* %4, i32 0, i32 1
  %6 = load i32** %5, align 8
  %7 = bitcast %"class.std::vector.0"* %2 to %"struct.std::_Vector_base.1"*
  %8 = getelementptr inbounds %"struct.std::_Vector_base.1"* %7, i32 0, i32 0
  %9 = getelementptr inbounds %"struct.std::_Vector_base<int, std::allocator<int> >::_Vector_impl"* %8, i32 0, i32 0
  %10 = load i32** %9, align 8
  %11 = ptrtoint i32* %6 to i64
  %12 = ptrtoint i32* %10 to i64
  %13 = sub i64 %11, %12
  %14 = sdiv exact i64 %13, 4
  ret i64 %14
}

; Function Attrs: nounwind uwtable
define linkonce_odr i32* @_ZNSt6vectorIiSaIiEEixEm(%"class.std::vector.0"* %this, i64 %__n) #5 align 2 {
  %1 = alloca %"class.std::vector.0"*, align 8
  %2 = alloca i64, align 8
  store %"class.std::vector.0"* %this, %"class.std::vector.0"** %1, align 8
  store i64 %__n, i64* %2, align 8
  %3 = load %"class.std::vector.0"** %1
  %4 = bitcast %"class.std::vector.0"* %3 to %"struct.std::_Vector_base.1"*
  %5 = getelementptr inbounds %"struct.std::_Vector_base.1"* %4, i32 0, i32 0
  %6 = getelementptr inbounds %"struct.std::_Vector_base<int, std::allocator<int> >::_Vector_impl"* %5, i32 0, i32 0
  %7 = load i32** %6, align 8
  %8 = load i64* %2, align 8
  %9 = getelementptr inbounds i32* %7, i64 %8
  ret i32* %9
}

; Function Attrs: uwtable
define void @_ZN5graph11create_edgeEii(%class.graph* %this, i32 %src, i32 %dest) #2 align 2 {
  %1 = alloca %class.graph*, align 8
  %2 = alloca i32, align 4
  %3 = alloca i32, align 4
  store %class.graph* %this, %class.graph** %1, align 8
  store i32 %src, i32* %2, align 4
  store i32 %dest, i32* %3, align 4
  %4 = load %class.graph** %1
  %5 = getelementptr inbounds %class.graph* %4, i32 0, i32 0
  %6 = load i32* %2, align 4
  %7 = sext i32 %6 to i64
  %8 = call %"class.std::vector.0"* @_ZNSt6vectorIS_IiSaIiEESaIS1_EEixEm(%"class.std::vector"* %5, i64 %7)
  call void @_ZNSt6vectorIiSaIiEE9push_backERKi(%"class.std::vector.0"* %8, i32* %3)
  ret void
}

; Function Attrs: uwtable
define i32 @_ZN5graph9list_sizeEi(%class.graph* %this, i32 %i) #2 align 2 {
  %1 = alloca %class.graph*, align 8
  %2 = alloca i32, align 4
  store %class.graph* %this, %class.graph** %1, align 8
  store i32 %i, i32* %2, align 4
  %3 = load %class.graph** %1
  %4 = getelementptr inbounds %class.graph* %3, i32 0, i32 0
  %5 = load i32* %2, align 4
  %6 = sext i32 %5 to i64
  %7 = call %"class.std::vector.0"* @_ZNSt6vectorIS_IiSaIiEESaIS1_EEixEm(%"class.std::vector"* %4, i64 %6)
  %8 = call i64 @_ZNKSt6vectorIiSaIiEE4sizeEv(%"class.std::vector.0"* %7)
  %9 = trunc i64 %8 to i32
  ret i32 %9
}

; Function Attrs: uwtable
define void @_ZN5graph15print_dominatorEv(%class.graph* %this) #2 align 2 {
  %1 = alloca %class.graph*, align 8
  %i = alloca i32, align 4
  %total = alloca i32, align 4
  %it = alloca %"struct.std::_Rb_tree_const_iterator", align 8
  %it_end = alloca %"struct.std::_Rb_tree_const_iterator", align 8
  %2 = alloca %"struct.std::_Rb_tree_const_iterator", align 8
  %3 = alloca %"struct.std::_Rb_tree_const_iterator", align 8
  store %class.graph* %this, %class.graph** %1, align 8
  %4 = load %class.graph** %1
  call void @_ZNSt23_Rb_tree_const_iteratorIiEC2Ev(%"struct.std::_Rb_tree_const_iterator"* %it)
  call void @_ZNSt23_Rb_tree_const_iteratorIiEC2Ev(%"struct.std::_Rb_tree_const_iterator"* %it_end)
  %5 = getelementptr inbounds %class.graph* %4, i32 0, i32 2
  %6 = call i64 @_ZNKSt6vectorISt3setIiSt4lessIiESaIiEESaIS4_EE4sizeEv(%"class.std::vector.9"* %5)
  %7 = trunc i64 %6 to i32
  store i32 %7, i32* %total, align 4
  %8 = call %"class.std::basic_ostream"* @_ZStlsISt11char_traitsIcEERSt13basic_ostreamIcT_ES5_PKc(%"class.std::basic_ostream"* @_ZSt4cout, i8* getelementptr inbounds ([22 x i8]* @.str, i32 0, i32 0))
  store i32 0, i32* %i, align 4
  br label %9

; <label>:9                                       ; preds = %44, %0
  %10 = load i32* %i, align 4
  %11 = load i32* %total, align 4
  %12 = icmp slt i32 %10, %11
  br i1 %12, label %13, label %47

; <label>:13                                      ; preds = %9
  %14 = call %"class.std::basic_ostream"* @_ZStlsISt11char_traitsIcEERSt13basic_ostreamIcT_ES5_PKc(%"class.std::basic_ostream"* @_ZSt4cout, i8* getelementptr inbounds ([2 x i8]* @.str1, i32 0, i32 0))
  %15 = load i32* %i, align 4
  %16 = call %"class.std::basic_ostream"* @_ZNSolsEi(%"class.std::basic_ostream"* %14, i32 %15)
  %17 = call %"class.std::basic_ostream"* @_ZStlsISt11char_traitsIcEERSt13basic_ostreamIcT_ES5_PKc(%"class.std::basic_ostream"* %16, i8* getelementptr inbounds ([4 x i8]* @.str2, i32 0, i32 0))
  %18 = getelementptr inbounds %class.graph* %4, i32 0, i32 2
  %19 = load i32* %i, align 4
  %20 = sext i32 %19 to i64
  %21 = call %"class.std::set"* @_ZNSt6vectorISt3setIiSt4lessIiESaIiEESaIS4_EEixEm(%"class.std::vector.9"* %18, i64 %20)
  %22 = call %"struct.std::_Rb_tree_node_base"* @_ZNKSt3setIiSt4lessIiESaIiEE3endEv(%"class.std::set"* %21)
  %23 = getelementptr %"struct.std::_Rb_tree_const_iterator"* %2, i32 0, i32 0
  store %"struct.std::_Rb_tree_node_base"* %22, %"struct.std::_Rb_tree_node_base"** %23
  %24 = bitcast %"struct.std::_Rb_tree_const_iterator"* %it_end to i8*
  %25 = bitcast %"struct.std::_Rb_tree_const_iterator"* %2 to i8*
  call void @llvm.memcpy.p0i8.p0i8.i64(i8* %24, i8* %25, i64 8, i32 8, i1 false)
  %26 = getelementptr inbounds %class.graph* %4, i32 0, i32 2
  %27 = load i32* %i, align 4
  %28 = sext i32 %27 to i64
  %29 = call %"class.std::set"* @_ZNSt6vectorISt3setIiSt4lessIiESaIiEESaIS4_EEixEm(%"class.std::vector.9"* %26, i64 %28)
  %30 = call %"struct.std::_Rb_tree_node_base"* @_ZNKSt3setIiSt4lessIiESaIiEE5beginEv(%"class.std::set"* %29)
  %31 = getelementptr %"struct.std::_Rb_tree_const_iterator"* %3, i32 0, i32 0
  store %"struct.std::_Rb_tree_node_base"* %30, %"struct.std::_Rb_tree_node_base"** %31
  %32 = bitcast %"struct.std::_Rb_tree_const_iterator"* %it to i8*
  %33 = bitcast %"struct.std::_Rb_tree_const_iterator"* %3 to i8*
  call void @llvm.memcpy.p0i8.p0i8.i64(i8* %32, i8* %33, i64 8, i32 8, i1 false)
  br label %34

; <label>:34                                      ; preds = %41, %13
  %35 = call zeroext i1 @_ZNKSt23_Rb_tree_const_iteratorIiEneERKS0_(%"struct.std::_Rb_tree_const_iterator"* %it, %"struct.std::_Rb_tree_const_iterator"* %it_end)
  br i1 %35, label %36, label %43

; <label>:36                                      ; preds = %34
  %37 = call %"class.std::basic_ostream"* @_ZStlsISt11char_traitsIcEERSt13basic_ostreamIcT_ES5_PKc(%"class.std::basic_ostream"* @_ZSt4cout, i8* getelementptr inbounds ([2 x i8]* @.str3, i32 0, i32 0))
  %38 = call i32* @_ZNKSt23_Rb_tree_const_iteratorIiEdeEv(%"struct.std::_Rb_tree_const_iterator"* %it)
  %39 = load i32* %38
  %40 = call %"class.std::basic_ostream"* @_ZNSolsEi(%"class.std::basic_ostream"* %37, i32 %39)
  br label %41

; <label>:41                                      ; preds = %36
  %42 = call %"struct.std::_Rb_tree_const_iterator"* @_ZNSt23_Rb_tree_const_iteratorIiEppEv(%"struct.std::_Rb_tree_const_iterator"* %it)
  br label %34

; <label>:43                                      ; preds = %34
  br label %44

; <label>:44                                      ; preds = %43
  %45 = load i32* %i, align 4
  %46 = add nsw i32 %45, 1
  store i32 %46, i32* %i, align 4
  br label %9

; <label>:47                                      ; preds = %9
  ret void
}

; Function Attrs: nounwind uwtable
define linkonce_odr void @_ZNSt23_Rb_tree_const_iteratorIiEC2Ev(%"struct.std::_Rb_tree_const_iterator"* %this) unnamed_addr #5 align 2 {
  %1 = alloca %"struct.std::_Rb_tree_const_iterator"*, align 8
  store %"struct.std::_Rb_tree_const_iterator"* %this, %"struct.std::_Rb_tree_const_iterator"** %1, align 8
  %2 = load %"struct.std::_Rb_tree_const_iterator"** %1
  %3 = getelementptr inbounds %"struct.std::_Rb_tree_const_iterator"* %2, i32 0, i32 0
  store %"struct.std::_Rb_tree_node_base"* null, %"struct.std::_Rb_tree_node_base"** %3, align 8
  ret void
}

; Function Attrs: nounwind uwtable
define linkonce_odr i64 @_ZNKSt6vectorISt3setIiSt4lessIiESaIiEESaIS4_EE4sizeEv(%"class.std::vector.9"* %this) #5 align 2 {
  %1 = alloca %"class.std::vector.9"*, align 8
  store %"class.std::vector.9"* %this, %"class.std::vector.9"** %1, align 8
  %2 = load %"class.std::vector.9"** %1
  %3 = bitcast %"class.std::vector.9"* %2 to %"struct.std::_Vector_base.10"*
  %4 = getelementptr inbounds %"struct.std::_Vector_base.10"* %3, i32 0, i32 0
  %5 = getelementptr inbounds %"struct.std::_Vector_base<std::set<int, std::less<int>, std::allocator<int> >, std::allocator<std::set<int, std::less<int>, std::allocator<int> > > >::_Vector_impl"* %4, i32 0, i32 1
  %6 = load %"class.std::set"** %5, align 8
  %7 = bitcast %"class.std::vector.9"* %2 to %"struct.std::_Vector_base.10"*
  %8 = getelementptr inbounds %"struct.std::_Vector_base.10"* %7, i32 0, i32 0
  %9 = getelementptr inbounds %"struct.std::_Vector_base<std::set<int, std::less<int>, std::allocator<int> >, std::allocator<std::set<int, std::less<int>, std::allocator<int> > > >::_Vector_impl"* %8, i32 0, i32 0
  %10 = load %"class.std::set"** %9, align 8
  %11 = ptrtoint %"class.std::set"* %6 to i64
  %12 = ptrtoint %"class.std::set"* %10 to i64
  %13 = sub i64 %11, %12
  %14 = sdiv exact i64 %13, 48
  ret i64 %14
}

declare %"class.std::basic_ostream"* @_ZStlsISt11char_traitsIcEERSt13basic_ostreamIcT_ES5_PKc(%"class.std::basic_ostream"*, i8*) #0

declare %"class.std::basic_ostream"* @_ZNSolsEi(%"class.std::basic_ostream"*, i32) #0

; Function Attrs: nounwind
declare void @llvm.memcpy.p0i8.p0i8.i64(i8* nocapture, i8* nocapture readonly, i64, i32, i1) #1

; Function Attrs: uwtable
define linkonce_odr %"struct.std::_Rb_tree_node_base"* @_ZNKSt3setIiSt4lessIiESaIiEE5beginEv(%"class.std::set"* %this) #2 align 2 {
  %1 = alloca %"struct.std::_Rb_tree_const_iterator", align 8
  %2 = alloca %"class.std::set"*, align 8
  store %"class.std::set"* %this, %"class.std::set"** %2, align 8
  %3 = load %"class.std::set"** %2
  %4 = getelementptr inbounds %"class.std::set"* %3, i32 0, i32 0
  %5 = call %"struct.std::_Rb_tree_node_base"* @_ZNKSt8_Rb_treeIiiSt9_IdentityIiESt4lessIiESaIiEE5beginEv(%"class.std::_Rb_tree"* %4)
  %6 = getelementptr %"struct.std::_Rb_tree_const_iterator"* %1, i32 0, i32 0
  store %"struct.std::_Rb_tree_node_base"* %5, %"struct.std::_Rb_tree_node_base"** %6
  %7 = getelementptr %"struct.std::_Rb_tree_const_iterator"* %1, i32 0, i32 0
  %8 = load %"struct.std::_Rb_tree_node_base"** %7
  ret %"struct.std::_Rb_tree_node_base"* %8
}

; Function Attrs: nounwind uwtable
define linkonce_odr zeroext i1 @_ZNKSt23_Rb_tree_const_iteratorIiEneERKS0_(%"struct.std::_Rb_tree_const_iterator"* %this, %"struct.std::_Rb_tree_const_iterator"* %__x) #5 align 2 {
  %1 = alloca %"struct.std::_Rb_tree_const_iterator"*, align 8
  %2 = alloca %"struct.std::_Rb_tree_const_iterator"*, align 8
  store %"struct.std::_Rb_tree_const_iterator"* %this, %"struct.std::_Rb_tree_const_iterator"** %1, align 8
  store %"struct.std::_Rb_tree_const_iterator"* %__x, %"struct.std::_Rb_tree_const_iterator"** %2, align 8
  %3 = load %"struct.std::_Rb_tree_const_iterator"** %1
  %4 = getelementptr inbounds %"struct.std::_Rb_tree_const_iterator"* %3, i32 0, i32 0
  %5 = load %"struct.std::_Rb_tree_node_base"** %4, align 8
  %6 = load %"struct.std::_Rb_tree_const_iterator"** %2, align 8
  %7 = getelementptr inbounds %"struct.std::_Rb_tree_const_iterator"* %6, i32 0, i32 0
  %8 = load %"struct.std::_Rb_tree_node_base"** %7, align 8
  %9 = icmp ne %"struct.std::_Rb_tree_node_base"* %5, %8
  ret i1 %9
}

; Function Attrs: nounwind uwtable
define linkonce_odr i32* @_ZNKSt23_Rb_tree_const_iteratorIiEdeEv(%"struct.std::_Rb_tree_const_iterator"* %this) #5 align 2 {
  %1 = alloca %"struct.std::_Rb_tree_const_iterator"*, align 8
  store %"struct.std::_Rb_tree_const_iterator"* %this, %"struct.std::_Rb_tree_const_iterator"** %1, align 8
  %2 = load %"struct.std::_Rb_tree_const_iterator"** %1
  %3 = getelementptr inbounds %"struct.std::_Rb_tree_const_iterator"* %2, i32 0, i32 0
  %4 = load %"struct.std::_Rb_tree_node_base"** %3, align 8
  %5 = bitcast %"struct.std::_Rb_tree_node_base"* %4 to %"struct.std::_Rb_tree_node"*
  %6 = getelementptr inbounds %"struct.std::_Rb_tree_node"* %5, i32 0, i32 1
  ret i32* %6
}

; Function Attrs: nounwind uwtable
define linkonce_odr %"struct.std::_Rb_tree_const_iterator"* @_ZNSt23_Rb_tree_const_iteratorIiEppEv(%"struct.std::_Rb_tree_const_iterator"* %this) #5 align 2 {
  %1 = alloca %"struct.std::_Rb_tree_const_iterator"*, align 8
  store %"struct.std::_Rb_tree_const_iterator"* %this, %"struct.std::_Rb_tree_const_iterator"** %1, align 8
  %2 = load %"struct.std::_Rb_tree_const_iterator"** %1
  %3 = getelementptr inbounds %"struct.std::_Rb_tree_const_iterator"* %2, i32 0, i32 0
  %4 = load %"struct.std::_Rb_tree_node_base"** %3, align 8
  %5 = call %"struct.std::_Rb_tree_node_base"* @_ZSt18_Rb_tree_incrementPKSt18_Rb_tree_node_base(%"struct.std::_Rb_tree_node_base"* %4) #13
  %6 = getelementptr inbounds %"struct.std::_Rb_tree_const_iterator"* %2, i32 0, i32 0
  store %"struct.std::_Rb_tree_node_base"* %5, %"struct.std::_Rb_tree_node_base"** %6, align 8
  ret %"struct.std::_Rb_tree_const_iterator"* %2
}

; Function Attrs: uwtable
define void @_Z9print_setSt23_Rb_tree_const_iteratorIiES0_(%"struct.std::_Rb_tree_node_base"* %it.coerce, %"struct.std::_Rb_tree_node_base"* %end.coerce) #2 {
  %it = alloca %"struct.std::_Rb_tree_const_iterator", align 8
  %end = alloca %"struct.std::_Rb_tree_const_iterator", align 8
  %1 = getelementptr %"struct.std::_Rb_tree_const_iterator"* %it, i32 0, i32 0
  store %"struct.std::_Rb_tree_node_base"* %it.coerce, %"struct.std::_Rb_tree_node_base"** %1
  %2 = getelementptr %"struct.std::_Rb_tree_const_iterator"* %end, i32 0, i32 0
  store %"struct.std::_Rb_tree_node_base"* %end.coerce, %"struct.std::_Rb_tree_node_base"** %2
  br label %3

; <label>:3                                       ; preds = %10, %0
  %4 = call zeroext i1 @_ZNKSt23_Rb_tree_const_iteratorIiEneERKS0_(%"struct.std::_Rb_tree_const_iterator"* %it, %"struct.std::_Rb_tree_const_iterator"* %end)
  br i1 %4, label %5, label %12

; <label>:5                                       ; preds = %3
  %6 = call %"class.std::basic_ostream"* @_ZStlsISt11char_traitsIcEERSt13basic_ostreamIcT_ES5_PKc(%"class.std::basic_ostream"* @_ZSt4cout, i8* getelementptr inbounds ([2 x i8]* @.str3, i32 0, i32 0))
  %7 = call i32* @_ZNKSt23_Rb_tree_const_iteratorIiEdeEv(%"struct.std::_Rb_tree_const_iterator"* %it)
  %8 = load i32* %7
  %9 = call %"class.std::basic_ostream"* @_ZNSolsEi(%"class.std::basic_ostream"* %6, i32 %8)
  br label %10

; <label>:10                                      ; preds = %5
  %11 = call %"struct.std::_Rb_tree_const_iterator"* @_ZNSt23_Rb_tree_const_iteratorIiEppEv(%"struct.std::_Rb_tree_const_iterator"* %it)
  br label %3

; <label>:12                                      ; preds = %3
  ret void
}

; Function Attrs: uwtable
define zeroext i1 @_ZN5graph19intersect_dominatorEv(%class.graph* %this) #2 align 2 {
  %1 = alloca %class.graph*, align 8
  %total = alloca i32, align 4
  %total_pred = alloca i32, align 4
  %pred = alloca i32, align 4
  %j = alloca i32, align 4
  %change_flag = alloca i8, align 1
  %i = alloca i32, align 4
  %result_set = alloca %"class.std::set", align 8
  %2 = alloca i8*
  %3 = alloca i32
  %4 = alloca %"struct.std::_Bit_reference", align 8
  %5 = alloca %"class.std::set", align 8
  %k = alloca i32, align 4
  %it = alloca %"struct.std::_Rb_tree_const_iterator", align 8
  %itend = alloca %"struct.std::_Rb_tree_const_iterator", align 8
  %temp = alloca %"class.std::set", align 8
  %temp1 = alloca %"class.std::set", align 8
  %6 = alloca %"struct.std::_Bit_reference", align 8
  %7 = alloca %"struct.std::_Rb_tree_const_iterator", align 8
  %8 = alloca %"class.std::set", align 8
  %9 = alloca %"struct.std::_Rb_tree_const_iterator", align 8
  %10 = alloca %"struct.std::_Rb_tree_const_iterator", align 8
  %11 = alloca %"struct.std::_Rb_tree_const_iterator", align 8
  %12 = alloca %"struct.std::_Rb_tree_const_iterator", align 8
  %13 = alloca %"class.std::insert_iterator", align 8
  %14 = alloca %"struct.std::_Rb_tree_const_iterator", align 8
  %15 = alloca %"class.std::insert_iterator", align 8
  %16 = alloca %"struct.std::pair", align 8
  %17 = alloca %"struct.std::_Bit_reference", align 8
  store %class.graph* %this, %class.graph** %1, align 8
  %18 = load %class.graph** %1
  %19 = getelementptr inbounds %class.graph* %18, i32 0, i32 0
  %20 = call i64 @_ZNKSt6vectorIS_IiSaIiEESaIS1_EE4sizeEv(%"class.std::vector"* %19)
  %21 = trunc i64 %20 to i32
  store i32 %21, i32* %total, align 4
  store i8 0, i8* %change_flag, align 1
  %22 = getelementptr inbounds %class.graph* %18, i32 0, i32 6
  %23 = load i32* %22, align 4
  %24 = add nsw i32 %23, 1
  store i32 %24, i32* %22, align 4
  store i32 0, i32* %i, align 4
  br label %25

; <label>:25                                      ; preds = %252, %0
  %26 = load i32* %i, align 4
  %27 = load i32* %total, align 4
  %28 = icmp slt i32 %26, %27
  br i1 %28, label %29, label %257

; <label>:29                                      ; preds = %25
  call void @_ZNSt3setIiSt4lessIiESaIiEEC2Ev(%"class.std::set"* %result_set)
  %30 = getelementptr inbounds %class.graph* %18, i32 0, i32 0
  %31 = load i32* %i, align 4
  %32 = sext i32 %31 to i64
  %33 = invoke %"class.std::vector.0"* @_ZNSt6vectorIS_IiSaIiEESaIS1_EEixEm(%"class.std::vector"* %30, i64 %32)
          to label %34 unwind label %79

; <label>:34                                      ; preds = %29
  %35 = invoke i64 @_ZNKSt6vectorIiSaIiEE4sizeEv(%"class.std::vector.0"* %33)
          to label %36 unwind label %79

; <label>:36                                      ; preds = %34
  %37 = trunc i64 %35 to i32
  store i32 %37, i32* %total_pred, align 4
  store i32 0, i32* %j, align 4
  br label %38

; <label>:38                                      ; preds = %89, %36
  %39 = load i32* %j, align 4
  %40 = load i32* %total_pred, align 4
  %41 = icmp slt i32 %39, %40
  br i1 %41, label %42, label %92

; <label>:42                                      ; preds = %38
  %43 = getelementptr inbounds %class.graph* %18, i32 0, i32 1
  %44 = getelementptr inbounds %class.graph* %18, i32 0, i32 0
  %45 = load i32* %i, align 4
  %46 = sext i32 %45 to i64
  %47 = invoke %"class.std::vector.0"* @_ZNSt6vectorIS_IiSaIiEESaIS1_EEixEm(%"class.std::vector"* %44, i64 %46)
          to label %48 unwind label %79

; <label>:48                                      ; preds = %42
  %49 = load i32* %j, align 4
  %50 = sext i32 %49 to i64
  %51 = invoke i32* @_ZNSt6vectorIiSaIiEEixEm(%"class.std::vector.0"* %47, i64 %50)
          to label %52 unwind label %79

; <label>:52                                      ; preds = %48
  %53 = load i32* %51
  %54 = sext i32 %53 to i64
  %55 = invoke { i64*, i64 } @_ZNSt6vectorIbSaIbEEixEm(%"class.std::vector.5"* %43, i64 %54)
          to label %56 unwind label %79

; <label>:56                                      ; preds = %52
  %57 = bitcast %"struct.std::_Bit_reference"* %4 to { i64*, i64 }*
  %58 = getelementptr { i64*, i64 }* %57, i32 0, i32 0
  %59 = extractvalue { i64*, i64 } %55, 0
  store i64* %59, i64** %58, align 1
  %60 = getelementptr { i64*, i64 }* %57, i32 0, i32 1
  %61 = extractvalue { i64*, i64 } %55, 1
  store i64 %61, i64* %60, align 1
  %62 = invoke zeroext i1 @_ZNKSt14_Bit_referencecvbEv(%"struct.std::_Bit_reference"* %4)
          to label %63 unwind label %79

; <label>:63                                      ; preds = %56
  br i1 %62, label %64, label %88

; <label>:64                                      ; preds = %63
  %65 = getelementptr inbounds %class.graph* %18, i32 0, i32 0
  %66 = load i32* %i, align 4
  %67 = sext i32 %66 to i64
  %68 = invoke %"class.std::vector.0"* @_ZNSt6vectorIS_IiSaIiEESaIS1_EEixEm(%"class.std::vector"* %65, i64 %67)
          to label %69 unwind label %79

; <label>:69                                      ; preds = %64
  %70 = load i32* %j, align 4
  %71 = sext i32 %70 to i64
  %72 = invoke i32* @_ZNSt6vectorIiSaIiEEixEm(%"class.std::vector.0"* %68, i64 %71)
          to label %73 unwind label %79

; <label>:73                                      ; preds = %69
  %74 = load i32* %72
  invoke void @_ZN5graph18get_dominator_listEi(%"class.std::set"* sret %5, %class.graph* %18, i32 %74)
          to label %75 unwind label %79

; <label>:75                                      ; preds = %73
  %76 = invoke %"class.std::set"* @_ZNSt3setIiSt4lessIiESaIiEEaSERKS3_(%"class.std::set"* %result_set, %"class.std::set"* %5)
          to label %77 unwind label %83

; <label>:77                                      ; preds = %75
  invoke void @_ZNSt3setIiSt4lessIiESaIiEED2Ev(%"class.std::set"* %5)
          to label %78 unwind label %79

; <label>:78                                      ; preds = %77
  br label %92

; <label>:79                                      ; preds = %244, %239, %236, %231, %230, %225, %221, %219, %209, %207, %198, %101, %100, %99, %77, %73, %69, %64, %56, %52, %48, %42, %34, %29
  %80 = landingpad { i8*, i32 } personality i8* bitcast (i32 (...)* @__gxx_personality_v0 to i8*)
          cleanup
  %81 = extractvalue { i8*, i32 } %80, 0
  store i8* %81, i8** %2
  %82 = extractvalue { i8*, i32 } %80, 1
  store i32 %82, i32* %3
  br label %255

; <label>:83                                      ; preds = %75
  %84 = landingpad { i8*, i32 } personality i8* bitcast (i32 (...)* @__gxx_personality_v0 to i8*)
          cleanup
  %85 = extractvalue { i8*, i32 } %84, 0
  store i8* %85, i8** %2
  %86 = extractvalue { i8*, i32 } %84, 1
  store i32 %86, i32* %3
  invoke void @_ZNSt3setIiSt4lessIiESaIiEED2Ev(%"class.std::set"* %5)
          to label %87 unwind label %265

; <label>:87                                      ; preds = %83
  br label %255

; <label>:88                                      ; preds = %63
  br label %89

; <label>:89                                      ; preds = %88
  %90 = load i32* %j, align 4
  %91 = add nsw i32 %90, 1
  store i32 %91, i32* %j, align 4
  br label %38

; <label>:92                                      ; preds = %78, %38
  %93 = load i32* %j, align 4
  %94 = add nsw i32 %93, 1
  store i32 %94, i32* %k, align 4
  br label %95

; <label>:95                                      ; preds = %200, %92
  %96 = load i32* %k, align 4
  %97 = load i32* %total_pred, align 4
  %98 = icmp slt i32 %96, %97
  br i1 %98, label %99, label %207

; <label>:99                                      ; preds = %95
  invoke void @_ZNSt23_Rb_tree_const_iteratorIiEC2Ev(%"struct.std::_Rb_tree_const_iterator"* %it)
          to label %100 unwind label %79

; <label>:100                                     ; preds = %99
  invoke void @_ZNSt23_Rb_tree_const_iteratorIiEC2Ev(%"struct.std::_Rb_tree_const_iterator"* %itend)
          to label %101 unwind label %79

; <label>:101                                     ; preds = %100
  invoke void @_ZNSt3setIiSt4lessIiESaIiEEC2Ev(%"class.std::set"* %temp)
          to label %102 unwind label %79

; <label>:102                                     ; preds = %101
  invoke void @_ZNSt3setIiSt4lessIiESaIiEEC2Ev(%"class.std::set"* %temp1)
          to label %103 unwind label %184

; <label>:103                                     ; preds = %102
  %104 = getelementptr inbounds %class.graph* %18, i32 0, i32 0
  %105 = load i32* %i, align 4
  %106 = sext i32 %105 to i64
  %107 = invoke %"class.std::vector.0"* @_ZNSt6vectorIS_IiSaIiEESaIS1_EEixEm(%"class.std::vector"* %104, i64 %106)
          to label %108 unwind label %188

; <label>:108                                     ; preds = %103
  %109 = load i32* %k, align 4
  %110 = sext i32 %109 to i64
  %111 = invoke i32* @_ZNSt6vectorIiSaIiEEixEm(%"class.std::vector.0"* %107, i64 %110)
          to label %112 unwind label %188

; <label>:112                                     ; preds = %108
  %113 = load i32* %111
  store i32 %113, i32* %pred, align 4
  %114 = getelementptr inbounds %class.graph* %18, i32 0, i32 1
  %115 = load i32* %pred, align 4
  %116 = sext i32 %115 to i64
  %117 = invoke { i64*, i64 } @_ZNSt6vectorIbSaIbEEixEm(%"class.std::vector.5"* %114, i64 %116)
          to label %118 unwind label %188

; <label>:118                                     ; preds = %112
  %119 = bitcast %"struct.std::_Bit_reference"* %6 to { i64*, i64 }*
  %120 = getelementptr { i64*, i64 }* %119, i32 0, i32 0
  %121 = extractvalue { i64*, i64 } %117, 0
  store i64* %121, i64** %120, align 1
  %122 = getelementptr { i64*, i64 }* %119, i32 0, i32 1
  %123 = extractvalue { i64*, i64 } %117, 1
  store i64 %123, i64* %122, align 1
  %124 = invoke zeroext i1 @_ZNKSt14_Bit_referencecvbEv(%"struct.std::_Bit_reference"* %6)
          to label %125 unwind label %188

; <label>:125                                     ; preds = %118
  br i1 %124, label %126, label %197

; <label>:126                                     ; preds = %125
  %127 = load i32* %pred, align 4
  %128 = invoke %"struct.std::_Rb_tree_node_base"* @_ZN5graph17get_end_dominatorEi(%class.graph* %18, i32 %127)
          to label %129 unwind label %188

; <label>:129                                     ; preds = %126
  %130 = getelementptr %"struct.std::_Rb_tree_const_iterator"* %7, i32 0, i32 0
  store %"struct.std::_Rb_tree_node_base"* %128, %"struct.std::_Rb_tree_node_base"** %130
  %131 = bitcast %"struct.std::_Rb_tree_const_iterator"* %itend to i8*
  %132 = bitcast %"struct.std::_Rb_tree_const_iterator"* %7 to i8*
  call void @llvm.memcpy.p0i8.p0i8.i64(i8* %131, i8* %132, i64 8, i32 8, i1 false)
  %133 = load i32* %pred, align 4
  invoke void @_ZN5graph18get_dominator_listEi(%"class.std::set"* sret %8, %class.graph* %18, i32 %133)
          to label %134 unwind label %188

; <label>:134                                     ; preds = %129
  %135 = invoke %"class.std::set"* @_ZNSt3setIiSt4lessIiESaIiEEaSERKS3_(%"class.std::set"* %temp, %"class.std::set"* %8)
          to label %136 unwind label %192

; <label>:136                                     ; preds = %134
  invoke void @_ZNSt3setIiSt4lessIiESaIiEED2Ev(%"class.std::set"* %8)
          to label %137 unwind label %188

; <label>:137                                     ; preds = %136
  %138 = invoke %"struct.std::_Rb_tree_node_base"* @_ZNKSt3setIiSt4lessIiESaIiEE5beginEv(%"class.std::set"* %result_set)
          to label %139 unwind label %188

; <label>:139                                     ; preds = %137
  %140 = getelementptr %"struct.std::_Rb_tree_const_iterator"* %9, i32 0, i32 0
  store %"struct.std::_Rb_tree_node_base"* %138, %"struct.std::_Rb_tree_node_base"** %140
  %141 = invoke %"struct.std::_Rb_tree_node_base"* @_ZNKSt3setIiSt4lessIiESaIiEE3endEv(%"class.std::set"* %result_set)
          to label %142 unwind label %188

; <label>:142                                     ; preds = %139
  %143 = getelementptr %"struct.std::_Rb_tree_const_iterator"* %10, i32 0, i32 0
  store %"struct.std::_Rb_tree_node_base"* %141, %"struct.std::_Rb_tree_node_base"** %143
  %144 = invoke %"struct.std::_Rb_tree_node_base"* @_ZNKSt3setIiSt4lessIiESaIiEE5beginEv(%"class.std::set"* %temp)
          to label %145 unwind label %188

; <label>:145                                     ; preds = %142
  %146 = getelementptr %"struct.std::_Rb_tree_const_iterator"* %11, i32 0, i32 0
  store %"struct.std::_Rb_tree_node_base"* %144, %"struct.std::_Rb_tree_node_base"** %146
  %147 = invoke %"struct.std::_Rb_tree_node_base"* @_ZNKSt3setIiSt4lessIiESaIiEE3endEv(%"class.std::set"* %temp)
          to label %148 unwind label %188

; <label>:148                                     ; preds = %145
  %149 = getelementptr %"struct.std::_Rb_tree_const_iterator"* %12, i32 0, i32 0
  store %"struct.std::_Rb_tree_node_base"* %147, %"struct.std::_Rb_tree_node_base"** %149
  %150 = invoke %"struct.std::_Rb_tree_node_base"* @_ZNKSt3setIiSt4lessIiESaIiEE5beginEv(%"class.std::set"* %temp1)
          to label %151 unwind label %188

; <label>:151                                     ; preds = %148
  %152 = getelementptr %"struct.std::_Rb_tree_const_iterator"* %14, i32 0, i32 0
  store %"struct.std::_Rb_tree_node_base"* %150, %"struct.std::_Rb_tree_node_base"** %152
  %153 = getelementptr %"struct.std::_Rb_tree_const_iterator"* %14, i32 0, i32 0
  %154 = load %"struct.std::_Rb_tree_node_base"** %153
  %155 = invoke { %"class.std::set"*, %"struct.std::_Rb_tree_node_base"* } @_ZSt8inserterISt3setIiSt4lessIiESaIiEESt23_Rb_tree_const_iteratorIiEESt15insert_iteratorIT_ERS8_T0_(%"class.std::set"* %temp1, %"struct.std::_Rb_tree_node_base"* %154)
          to label %156 unwind label %188

; <label>:156                                     ; preds = %151
  %157 = bitcast %"class.std::insert_iterator"* %13 to { %"class.std::set"*, %"struct.std::_Rb_tree_node_base"* }*
  %158 = getelementptr { %"class.std::set"*, %"struct.std::_Rb_tree_node_base"* }* %157, i32 0, i32 0
  %159 = extractvalue { %"class.std::set"*, %"struct.std::_Rb_tree_node_base"* } %155, 0
  store %"class.std::set"* %159, %"class.std::set"** %158, align 1
  %160 = getelementptr { %"class.std::set"*, %"struct.std::_Rb_tree_node_base"* }* %157, i32 0, i32 1
  %161 = extractvalue { %"class.std::set"*, %"struct.std::_Rb_tree_node_base"* } %155, 1
  store %"struct.std::_Rb_tree_node_base"* %161, %"struct.std::_Rb_tree_node_base"** %160, align 1
  %162 = getelementptr %"struct.std::_Rb_tree_const_iterator"* %9, i32 0, i32 0
  %163 = load %"struct.std::_Rb_tree_node_base"** %162
  %164 = getelementptr %"struct.std::_Rb_tree_const_iterator"* %10, i32 0, i32 0
  %165 = load %"struct.std::_Rb_tree_node_base"** %164
  %166 = getelementptr %"struct.std::_Rb_tree_const_iterator"* %11, i32 0, i32 0
  %167 = load %"struct.std::_Rb_tree_node_base"** %166
  %168 = getelementptr %"struct.std::_Rb_tree_const_iterator"* %12, i32 0, i32 0
  %169 = load %"struct.std::_Rb_tree_node_base"** %168
  %170 = bitcast %"class.std::insert_iterator"* %13 to { %"class.std::set"*, %"struct.std::_Rb_tree_node_base"* }*
  %171 = getelementptr { %"class.std::set"*, %"struct.std::_Rb_tree_node_base"* }* %170, i32 0, i32 0
  %172 = load %"class.std::set"** %171, align 1
  %173 = getelementptr { %"class.std::set"*, %"struct.std::_Rb_tree_node_base"* }* %170, i32 0, i32 1
  %174 = load %"struct.std::_Rb_tree_node_base"** %173, align 1
  %175 = invoke { %"class.std::set"*, %"struct.std::_Rb_tree_node_base"* } @_ZSt16set_intersectionISt23_Rb_tree_const_iteratorIiES1_St15insert_iteratorISt3setIiSt4lessIiESaIiEEEET1_T_SA_T0_SB_S9_(%"struct.std::_Rb_tree_node_base"* %163, %"struct.std::_Rb_tree_node_base"* %165, %"struct.std::_Rb_tree_node_base"* %167, %"struct.std::_Rb_tree_node_base"* %169, %"class.std::set"* %172, %"struct.std::_Rb_tree_node_base"* %174)
          to label %176 unwind label %188

; <label>:176                                     ; preds = %156
  %177 = bitcast %"class.std::insert_iterator"* %15 to { %"class.std::set"*, %"struct.std::_Rb_tree_node_base"* }*
  %178 = getelementptr { %"class.std::set"*, %"struct.std::_Rb_tree_node_base"* }* %177, i32 0, i32 0
  %179 = extractvalue { %"class.std::set"*, %"struct.std::_Rb_tree_node_base"* } %175, 0
  store %"class.std::set"* %179, %"class.std::set"** %178, align 1
  %180 = getelementptr { %"class.std::set"*, %"struct.std::_Rb_tree_node_base"* }* %177, i32 0, i32 1
  %181 = extractvalue { %"class.std::set"*, %"struct.std::_Rb_tree_node_base"* } %175, 1
  store %"struct.std::_Rb_tree_node_base"* %181, %"struct.std::_Rb_tree_node_base"** %180, align 1
  %182 = invoke %"class.std::set"* @_ZNSt3setIiSt4lessIiESaIiEEaSERKS3_(%"class.std::set"* %result_set, %"class.std::set"* %temp1)
          to label %183 unwind label %188

; <label>:183                                     ; preds = %176
  br label %197

; <label>:184                                     ; preds = %197, %102
  %185 = landingpad { i8*, i32 } personality i8* bitcast (i32 (...)* @__gxx_personality_v0 to i8*)
          cleanup
  %186 = extractvalue { i8*, i32 } %185, 0
  store i8* %186, i8** %2
  %187 = extractvalue { i8*, i32 } %185, 1
  store i32 %187, i32* %3
  br label %205

; <label>:188                                     ; preds = %176, %156, %151, %148, %145, %142, %139, %137, %136, %129, %126, %118, %112, %108, %103
  %189 = landingpad { i8*, i32 } personality i8* bitcast (i32 (...)* @__gxx_personality_v0 to i8*)
          cleanup
  %190 = extractvalue { i8*, i32 } %189, 0
  store i8* %190, i8** %2
  %191 = extractvalue { i8*, i32 } %189, 1
  store i32 %191, i32* %3
  br label %203

; <label>:192                                     ; preds = %134
  %193 = landingpad { i8*, i32 } personality i8* bitcast (i32 (...)* @__gxx_personality_v0 to i8*)
          cleanup
  %194 = extractvalue { i8*, i32 } %193, 0
  store i8* %194, i8** %2
  %195 = extractvalue { i8*, i32 } %193, 1
  store i32 %195, i32* %3
  invoke void @_ZNSt3setIiSt4lessIiESaIiEED2Ev(%"class.std::set"* %8)
          to label %196 unwind label %265

; <label>:196                                     ; preds = %192
  br label %203

; <label>:197                                     ; preds = %183, %125
  invoke void @_ZNSt3setIiSt4lessIiESaIiEED2Ev(%"class.std::set"* %temp1)
          to label %198 unwind label %184

; <label>:198                                     ; preds = %197
  invoke void @_ZNSt3setIiSt4lessIiESaIiEED2Ev(%"class.std::set"* %temp)
          to label %199 unwind label %79

; <label>:199                                     ; preds = %198
  br label %200

; <label>:200                                     ; preds = %199
  %201 = load i32* %k, align 4
  %202 = add nsw i32 %201, 1
  store i32 %202, i32* %k, align 4
  br label %95

; <label>:203                                     ; preds = %196, %188
  invoke void @_ZNSt3setIiSt4lessIiESaIiEED2Ev(%"class.std::set"* %temp1)
          to label %204 unwind label %265

; <label>:204                                     ; preds = %203
  br label %205

; <label>:205                                     ; preds = %204, %184
  invoke void @_ZNSt3setIiSt4lessIiESaIiEED2Ev(%"class.std::set"* %temp)
          to label %206 unwind label %265

; <label>:206                                     ; preds = %205
  br label %255

; <label>:207                                     ; preds = %95
  %208 = invoke { %"struct.std::_Rb_tree_node_base"*, i8 } @_ZNSt3setIiSt4lessIiESaIiEE6insertERKi(%"class.std::set"* %result_set, i32* %i)
          to label %209 unwind label %79

; <label>:209                                     ; preds = %207
  %210 = bitcast %"struct.std::pair"* %16 to { %"struct.std::_Rb_tree_node_base"*, i8 }*
  %211 = getelementptr { %"struct.std::_Rb_tree_node_base"*, i8 }* %210, i32 0, i32 0
  %212 = extractvalue { %"struct.std::_Rb_tree_node_base"*, i8 } %208, 0
  store %"struct.std::_Rb_tree_node_base"* %212, %"struct.std::_Rb_tree_node_base"** %211, align 1
  %213 = getelementptr { %"struct.std::_Rb_tree_node_base"*, i8 }* %210, i32 0, i32 1
  %214 = extractvalue { %"struct.std::_Rb_tree_node_base"*, i8 } %208, 1
  store i8 %214, i8* %213, align 1
  %215 = getelementptr inbounds %class.graph* %18, i32 0, i32 2
  %216 = load i32* %i, align 4
  %217 = sext i32 %216 to i64
  %218 = invoke %"class.std::set"* @_ZNSt6vectorISt3setIiSt4lessIiESaIiEESaIS4_EEixEm(%"class.std::vector.9"* %215, i64 %217)
          to label %219 unwind label %79

; <label>:219                                     ; preds = %209
  %220 = invoke i64 @_ZNKSt3setIiSt4lessIiESaIiEE4sizeEv(%"class.std::set"* %218)
          to label %221 unwind label %79

; <label>:221                                     ; preds = %219
  %222 = invoke i64 @_ZNKSt3setIiSt4lessIiESaIiEE4sizeEv(%"class.std::set"* %result_set)
          to label %223 unwind label %79

; <label>:223                                     ; preds = %221
  %224 = icmp ne i64 %220, %222
  br i1 %224, label %225, label %239

; <label>:225                                     ; preds = %223
  store i8 1, i8* %change_flag, align 1
  %226 = getelementptr inbounds %class.graph* %18, i32 0, i32 2
  %227 = load i32* %i, align 4
  %228 = sext i32 %227 to i64
  %229 = invoke %"class.std::set"* @_ZNSt6vectorISt3setIiSt4lessIiESaIiEESaIS4_EEixEm(%"class.std::vector.9"* %226, i64 %228)
          to label %230 unwind label %79

; <label>:230                                     ; preds = %225
  invoke void @_ZNSt3setIiSt4lessIiESaIiEE5clearEv(%"class.std::set"* %229)
          to label %231 unwind label %79

; <label>:231                                     ; preds = %230
  %232 = getelementptr inbounds %class.graph* %18, i32 0, i32 2
  %233 = load i32* %i, align 4
  %234 = sext i32 %233 to i64
  %235 = invoke %"class.std::set"* @_ZNSt6vectorISt3setIiSt4lessIiESaIiEESaIS4_EEixEm(%"class.std::vector.9"* %232, i64 %234)
          to label %236 unwind label %79

; <label>:236                                     ; preds = %231
  %237 = invoke %"class.std::set"* @_ZNSt3setIiSt4lessIiESaIiEEaSERKS3_(%"class.std::set"* %235, %"class.std::set"* %result_set)
          to label %238 unwind label %79

; <label>:238                                     ; preds = %236
  br label %239

; <label>:239                                     ; preds = %238, %223
  %240 = getelementptr inbounds %class.graph* %18, i32 0, i32 1
  %241 = load i32* %i, align 4
  %242 = sext i32 %241 to i64
  %243 = invoke { i64*, i64 } @_ZNSt6vectorIbSaIbEEixEm(%"class.std::vector.5"* %240, i64 %242)
          to label %244 unwind label %79

; <label>:244                                     ; preds = %239
  %245 = bitcast %"struct.std::_Bit_reference"* %17 to { i64*, i64 }*
  %246 = getelementptr { i64*, i64 }* %245, i32 0, i32 0
  %247 = extractvalue { i64*, i64 } %243, 0
  store i64* %247, i64** %246, align 1
  %248 = getelementptr { i64*, i64 }* %245, i32 0, i32 1
  %249 = extractvalue { i64*, i64 } %243, 1
  store i64 %249, i64* %248, align 1
  %250 = invoke %"struct.std::_Bit_reference"* @_ZNSt14_Bit_referenceaSEb(%"struct.std::_Bit_reference"* %17, i1 zeroext true)
          to label %251 unwind label %79

; <label>:251                                     ; preds = %244
  call void @_ZNSt3setIiSt4lessIiESaIiEED2Ev(%"class.std::set"* %result_set)
  br label %252

; <label>:252                                     ; preds = %251
  %253 = load i32* %i, align 4
  %254 = add nsw i32 %253, 1
  store i32 %254, i32* %i, align 4
  br label %25

; <label>:255                                     ; preds = %206, %87, %79
  invoke void @_ZNSt3setIiSt4lessIiESaIiEED2Ev(%"class.std::set"* %result_set)
          to label %256 unwind label %265

; <label>:256                                     ; preds = %255
  br label %260

; <label>:257                                     ; preds = %25
  %258 = load i8* %change_flag, align 1
  %259 = trunc i8 %258 to i1
  ret i1 %259

; <label>:260                                     ; preds = %256
  %261 = load i8** %2
  %262 = load i32* %3
  %263 = insertvalue { i8*, i32 } undef, i8* %261, 0
  %264 = insertvalue { i8*, i32 } %263, i32 %262, 1
  resume { i8*, i32 } %264

; <label>:265                                     ; preds = %255, %205, %203, %192, %83
  %266 = landingpad { i8*, i32 } personality i8* bitcast (i32 (...)* @__gxx_personality_v0 to i8*)
          catch i8* null
  %267 = extractvalue { i8*, i32 } %266, 0
  call void @__clang_call_terminate(i8* %267) #12
  unreachable
}

; Function Attrs: nounwind uwtable
define linkonce_odr i64 @_ZNKSt6vectorIS_IiSaIiEESaIS1_EE4sizeEv(%"class.std::vector"* %this) #5 align 2 {
  %1 = alloca %"class.std::vector"*, align 8
  store %"class.std::vector"* %this, %"class.std::vector"** %1, align 8
  %2 = load %"class.std::vector"** %1
  %3 = bitcast %"class.std::vector"* %2 to %"struct.std::_Vector_base"*
  %4 = getelementptr inbounds %"struct.std::_Vector_base"* %3, i32 0, i32 0
  %5 = getelementptr inbounds %"struct.std::_Vector_base<std::vector<int, std::allocator<int> >, std::allocator<std::vector<int, std::allocator<int> > > >::_Vector_impl"* %4, i32 0, i32 1
  %6 = load %"class.std::vector.0"** %5, align 8
  %7 = bitcast %"class.std::vector"* %2 to %"struct.std::_Vector_base"*
  %8 = getelementptr inbounds %"struct.std::_Vector_base"* %7, i32 0, i32 0
  %9 = getelementptr inbounds %"struct.std::_Vector_base<std::vector<int, std::allocator<int> >, std::allocator<std::vector<int, std::allocator<int> > > >::_Vector_impl"* %8, i32 0, i32 0
  %10 = load %"class.std::vector.0"** %9, align 8
  %11 = ptrtoint %"class.std::vector.0"* %6 to i64
  %12 = ptrtoint %"class.std::vector.0"* %10 to i64
  %13 = sub i64 %11, %12
  %14 = sdiv exact i64 %13, 24
  ret i64 %14
}

; Function Attrs: uwtable
define linkonce_odr { i64*, i64 } @_ZNSt6vectorIbSaIbEEixEm(%"class.std::vector.5"* %this, i64 %__n) #2 align 2 {
  %1 = alloca %"struct.std::_Bit_reference", align 8
  %2 = alloca %"class.std::vector.5"*, align 8
  %3 = alloca i64, align 8
  %4 = alloca %"struct.std::_Bit_iterator", align 8
  store %"class.std::vector.5"* %this, %"class.std::vector.5"** %2, align 8
  store i64 %__n, i64* %3, align 8
  %5 = load %"class.std::vector.5"** %2
  %6 = bitcast %"class.std::vector.5"* %5 to %"struct.std::_Bvector_base"*
  %7 = getelementptr inbounds %"struct.std::_Bvector_base"* %6, i32 0, i32 0
  %8 = getelementptr inbounds %"struct.std::_Bvector_base<std::allocator<bool> >::_Bvector_impl"* %7, i32 0, i32 0
  %9 = bitcast %"struct.std::_Bit_iterator"* %8 to %"struct.std::_Bit_iterator_base"*
  %10 = getelementptr inbounds %"struct.std::_Bit_iterator_base"* %9, i32 0, i32 0
  %11 = load i64** %10, align 8
  %12 = load i64* %3, align 8
  %13 = udiv i64 %12, 64
  %14 = getelementptr inbounds i64* %11, i64 %13
  %15 = load i64* %3, align 8
  %16 = urem i64 %15, 64
  %17 = trunc i64 %16 to i32
  call void @_ZNSt13_Bit_iteratorC2EPmj(%"struct.std::_Bit_iterator"* %4, i64* %14, i32 %17)
  %18 = call { i64*, i64 } @_ZNKSt13_Bit_iteratordeEv(%"struct.std::_Bit_iterator"* %4)
  %19 = bitcast %"struct.std::_Bit_reference"* %1 to { i64*, i64 }*
  %20 = getelementptr { i64*, i64 }* %19, i32 0, i32 0
  %21 = extractvalue { i64*, i64 } %18, 0
  store i64* %21, i64** %20, align 1
  %22 = getelementptr { i64*, i64 }* %19, i32 0, i32 1
  %23 = extractvalue { i64*, i64 } %18, 1
  store i64 %23, i64* %22, align 1
  %24 = bitcast %"struct.std::_Bit_reference"* %1 to { i64*, i64 }*
  %25 = load { i64*, i64 }* %24, align 1
  ret { i64*, i64 } %25
}

; Function Attrs: nounwind uwtable
define linkonce_odr zeroext i1 @_ZNKSt14_Bit_referencecvbEv(%"struct.std::_Bit_reference"* %this) #5 align 2 {
  %1 = alloca %"struct.std::_Bit_reference"*, align 8
  store %"struct.std::_Bit_reference"* %this, %"struct.std::_Bit_reference"** %1, align 8
  %2 = load %"struct.std::_Bit_reference"** %1
  %3 = getelementptr inbounds %"struct.std::_Bit_reference"* %2, i32 0, i32 0
  %4 = load i64** %3, align 8
  %5 = load i64* %4, align 8
  %6 = getelementptr inbounds %"struct.std::_Bit_reference"* %2, i32 0, i32 1
  %7 = load i64* %6, align 8
  %8 = and i64 %5, %7
  %9 = icmp ne i64 %8, 0
  %10 = xor i1 %9, true
  %11 = xor i1 %10, true
  ret i1 %11
}

; Function Attrs: uwtable
define linkonce_odr %"class.std::set"* @_ZNSt3setIiSt4lessIiESaIiEEaSERKS3_(%"class.std::set"* %this, %"class.std::set"* %__x) #2 align 2 {
  %1 = alloca %"class.std::set"*, align 8
  %2 = alloca %"class.std::set"*, align 8
  store %"class.std::set"* %this, %"class.std::set"** %1, align 8
  store %"class.std::set"* %__x, %"class.std::set"** %2, align 8
  %3 = load %"class.std::set"** %1
  %4 = getelementptr inbounds %"class.std::set"* %3, i32 0, i32 0
  %5 = load %"class.std::set"** %2, align 8
  %6 = getelementptr inbounds %"class.std::set"* %5, i32 0, i32 0
  %7 = call %"class.std::_Rb_tree"* @_ZNSt8_Rb_treeIiiSt9_IdentityIiESt4lessIiESaIiEEaSERKS5_(%"class.std::_Rb_tree"* %4, %"class.std::_Rb_tree"* %6)
  ret %"class.std::set"* %3
}

; Function Attrs: uwtable
define linkonce_odr void @_ZN5graph18get_dominator_listEi(%"class.std::set"* noalias sret %agg.result, %class.graph* %this, i32 %i) #2 align 2 {
  %1 = alloca %class.graph*, align 8
  %2 = alloca i32, align 4
  store %class.graph* %this, %class.graph** %1, align 8
  store i32 %i, i32* %2, align 4
  %3 = load %class.graph** %1
  %4 = getelementptr inbounds %class.graph* %3, i32 0, i32 2
  %5 = load i32* %2, align 4
  %6 = sext i32 %5 to i64
  %7 = call %"class.std::set"* @_ZNSt6vectorISt3setIiSt4lessIiESaIiEESaIS4_EEixEm(%"class.std::vector.9"* %4, i64 %6)
  call void @_ZNSt3setIiSt4lessIiESaIiEEC2ERKS3_(%"class.std::set"* %agg.result, %"class.std::set"* %7)
  ret void
}

; Function Attrs: uwtable
define linkonce_odr %"struct.std::_Rb_tree_node_base"* @_ZN5graph17get_end_dominatorEi(%class.graph* %this, i32 %i) #2 align 2 {
  %1 = alloca %"struct.std::_Rb_tree_const_iterator", align 8
  %2 = alloca %class.graph*, align 8
  %3 = alloca i32, align 4
  store %class.graph* %this, %class.graph** %2, align 8
  store i32 %i, i32* %3, align 4
  %4 = load %class.graph** %2
  %5 = getelementptr inbounds %class.graph* %4, i32 0, i32 2
  %6 = load i32* %3, align 4
  %7 = sext i32 %6 to i64
  %8 = call %"class.std::set"* @_ZNSt6vectorISt3setIiSt4lessIiESaIiEESaIS4_EEixEm(%"class.std::vector.9"* %5, i64 %7)
  %9 = call %"struct.std::_Rb_tree_node_base"* @_ZNKSt3setIiSt4lessIiESaIiEE3endEv(%"class.std::set"* %8)
  %10 = getelementptr %"struct.std::_Rb_tree_const_iterator"* %1, i32 0, i32 0
  store %"struct.std::_Rb_tree_node_base"* %9, %"struct.std::_Rb_tree_node_base"** %10
  %11 = getelementptr %"struct.std::_Rb_tree_const_iterator"* %1, i32 0, i32 0
  %12 = load %"struct.std::_Rb_tree_node_base"** %11
  ret %"struct.std::_Rb_tree_node_base"* %12
}

; Function Attrs: uwtable
define linkonce_odr { %"class.std::set"*, %"struct.std::_Rb_tree_node_base"* } @_ZSt16set_intersectionISt23_Rb_tree_const_iteratorIiES1_St15insert_iteratorISt3setIiSt4lessIiESaIiEEEET1_T_SA_T0_SB_S9_(%"struct.std::_Rb_tree_node_base"* %__first1.coerce, %"struct.std::_Rb_tree_node_base"* %__last1.coerce, %"struct.std::_Rb_tree_node_base"* %__first2.coerce, %"struct.std::_Rb_tree_node_base"* %__last2.coerce, %"class.std::set"* %__result.coerce0, %"struct.std::_Rb_tree_node_base"* %__result.coerce1) #2 {
  %1 = alloca %"class.std::insert_iterator", align 8
  %__first1 = alloca %"struct.std::_Rb_tree_const_iterator", align 8
  %__last1 = alloca %"struct.std::_Rb_tree_const_iterator", align 8
  %__first2 = alloca %"struct.std::_Rb_tree_const_iterator", align 8
  %__last2 = alloca %"struct.std::_Rb_tree_const_iterator", align 8
  %__result = alloca %"class.std::insert_iterator", align 8
  %2 = getelementptr %"struct.std::_Rb_tree_const_iterator"* %__first1, i32 0, i32 0
  store %"struct.std::_Rb_tree_node_base"* %__first1.coerce, %"struct.std::_Rb_tree_node_base"** %2
  %3 = getelementptr %"struct.std::_Rb_tree_const_iterator"* %__last1, i32 0, i32 0
  store %"struct.std::_Rb_tree_node_base"* %__last1.coerce, %"struct.std::_Rb_tree_node_base"** %3
  %4 = getelementptr %"struct.std::_Rb_tree_const_iterator"* %__first2, i32 0, i32 0
  store %"struct.std::_Rb_tree_node_base"* %__first2.coerce, %"struct.std::_Rb_tree_node_base"** %4
  %5 = getelementptr %"struct.std::_Rb_tree_const_iterator"* %__last2, i32 0, i32 0
  store %"struct.std::_Rb_tree_node_base"* %__last2.coerce, %"struct.std::_Rb_tree_node_base"** %5
  %6 = bitcast %"class.std::insert_iterator"* %__result to { %"class.std::set"*, %"struct.std::_Rb_tree_node_base"* }*
  %7 = getelementptr { %"class.std::set"*, %"struct.std::_Rb_tree_node_base"* }* %6, i32 0, i32 0
  store %"class.std::set"* %__result.coerce0, %"class.std::set"** %7
  %8 = getelementptr { %"class.std::set"*, %"struct.std::_Rb_tree_node_base"* }* %6, i32 0, i32 1
  store %"struct.std::_Rb_tree_node_base"* %__result.coerce1, %"struct.std::_Rb_tree_node_base"** %8
  br label %9

; <label>:9                                       ; preds = %39, %0
  %10 = call zeroext i1 @_ZNKSt23_Rb_tree_const_iteratorIiEneERKS0_(%"struct.std::_Rb_tree_const_iterator"* %__first1, %"struct.std::_Rb_tree_const_iterator"* %__last1)
  br i1 %10, label %11, label %13

; <label>:11                                      ; preds = %9
  %12 = call zeroext i1 @_ZNKSt23_Rb_tree_const_iteratorIiEneERKS0_(%"struct.std::_Rb_tree_const_iterator"* %__first2, %"struct.std::_Rb_tree_const_iterator"* %__last2)
  br label %13

; <label>:13                                      ; preds = %11, %9
  %14 = phi i1 [ false, %9 ], [ %12, %11 ]
  br i1 %14, label %15, label %40

; <label>:15                                      ; preds = %13
  %16 = call i32* @_ZNKSt23_Rb_tree_const_iteratorIiEdeEv(%"struct.std::_Rb_tree_const_iterator"* %__first1)
  %17 = load i32* %16
  %18 = call i32* @_ZNKSt23_Rb_tree_const_iteratorIiEdeEv(%"struct.std::_Rb_tree_const_iterator"* %__first2)
  %19 = load i32* %18
  %20 = icmp slt i32 %17, %19
  br i1 %20, label %21, label %23

; <label>:21                                      ; preds = %15
  %22 = call %"struct.std::_Rb_tree_const_iterator"* @_ZNSt23_Rb_tree_const_iteratorIiEppEv(%"struct.std::_Rb_tree_const_iterator"* %__first1)
  br label %39

; <label>:23                                      ; preds = %15
  %24 = call i32* @_ZNKSt23_Rb_tree_const_iteratorIiEdeEv(%"struct.std::_Rb_tree_const_iterator"* %__first2)
  %25 = load i32* %24
  %26 = call i32* @_ZNKSt23_Rb_tree_const_iteratorIiEdeEv(%"struct.std::_Rb_tree_const_iterator"* %__first1)
  %27 = load i32* %26
  %28 = icmp slt i32 %25, %27
  br i1 %28, label %29, label %31

; <label>:29                                      ; preds = %23
  %30 = call %"struct.std::_Rb_tree_const_iterator"* @_ZNSt23_Rb_tree_const_iteratorIiEppEv(%"struct.std::_Rb_tree_const_iterator"* %__first2)
  br label %38

; <label>:31                                      ; preds = %23
  %32 = call %"class.std::insert_iterator"* @_ZNSt15insert_iteratorISt3setIiSt4lessIiESaIiEEEdeEv(%"class.std::insert_iterator"* %__result)
  %33 = call i32* @_ZNKSt23_Rb_tree_const_iteratorIiEdeEv(%"struct.std::_Rb_tree_const_iterator"* %__first1)
  %34 = call %"class.std::insert_iterator"* @_ZNSt15insert_iteratorISt3setIiSt4lessIiESaIiEEEaSERKi(%"class.std::insert_iterator"* %32, i32* %33)
  %35 = call %"struct.std::_Rb_tree_const_iterator"* @_ZNSt23_Rb_tree_const_iteratorIiEppEv(%"struct.std::_Rb_tree_const_iterator"* %__first1)
  %36 = call %"struct.std::_Rb_tree_const_iterator"* @_ZNSt23_Rb_tree_const_iteratorIiEppEv(%"struct.std::_Rb_tree_const_iterator"* %__first2)
  %37 = call %"class.std::insert_iterator"* @_ZNSt15insert_iteratorISt3setIiSt4lessIiESaIiEEEppEv(%"class.std::insert_iterator"* %__result)
  br label %38

; <label>:38                                      ; preds = %31, %29
  br label %39

; <label>:39                                      ; preds = %38, %21
  br label %9

; <label>:40                                      ; preds = %13
  %41 = bitcast %"class.std::insert_iterator"* %1 to i8*
  %42 = bitcast %"class.std::insert_iterator"* %__result to i8*
  call void @llvm.memcpy.p0i8.p0i8.i64(i8* %41, i8* %42, i64 16, i32 8, i1 false)
  %43 = bitcast %"class.std::insert_iterator"* %1 to { %"class.std::set"*, %"struct.std::_Rb_tree_node_base"* }*
  %44 = load { %"class.std::set"*, %"struct.std::_Rb_tree_node_base"* }* %43, align 1
  ret { %"class.std::set"*, %"struct.std::_Rb_tree_node_base"* } %44
}

; Function Attrs: inlinehint uwtable
define linkonce_odr { %"class.std::set"*, %"struct.std::_Rb_tree_node_base"* } @_ZSt8inserterISt3setIiSt4lessIiESaIiEESt23_Rb_tree_const_iteratorIiEESt15insert_iteratorIT_ERS8_T0_(%"class.std::set"* %__x, %"struct.std::_Rb_tree_node_base"* %__i.coerce) #3 {
  %1 = alloca %"class.std::insert_iterator", align 8
  %__i = alloca %"struct.std::_Rb_tree_const_iterator", align 8
  %2 = alloca %"class.std::set"*, align 8
  %3 = alloca %"struct.std::_Rb_tree_const_iterator", align 8
  %4 = getelementptr %"struct.std::_Rb_tree_const_iterator"* %__i, i32 0, i32 0
  store %"struct.std::_Rb_tree_node_base"* %__i.coerce, %"struct.std::_Rb_tree_node_base"** %4
  store %"class.std::set"* %__x, %"class.std::set"** %2, align 8
  %5 = load %"class.std::set"** %2, align 8
  %6 = bitcast %"struct.std::_Rb_tree_const_iterator"* %3 to i8*
  %7 = bitcast %"struct.std::_Rb_tree_const_iterator"* %__i to i8*
  call void @llvm.memcpy.p0i8.p0i8.i64(i8* %6, i8* %7, i64 8, i32 8, i1 false)
  %8 = getelementptr %"struct.std::_Rb_tree_const_iterator"* %3, i32 0, i32 0
  %9 = load %"struct.std::_Rb_tree_node_base"** %8
  call void @_ZNSt15insert_iteratorISt3setIiSt4lessIiESaIiEEEC2ERS4_St23_Rb_tree_const_iteratorIiE(%"class.std::insert_iterator"* %1, %"class.std::set"* %5, %"struct.std::_Rb_tree_node_base"* %9)
  %10 = bitcast %"class.std::insert_iterator"* %1 to { %"class.std::set"*, %"struct.std::_Rb_tree_node_base"* }*
  %11 = load { %"class.std::set"*, %"struct.std::_Rb_tree_node_base"* }* %10, align 1
  ret { %"class.std::set"*, %"struct.std::_Rb_tree_node_base"* } %11
}

; Function Attrs: nounwind uwtable
define linkonce_odr i64 @_ZNKSt3setIiSt4lessIiESaIiEE4sizeEv(%"class.std::set"* %this) #5 align 2 {
  %1 = alloca %"class.std::set"*, align 8
  store %"class.std::set"* %this, %"class.std::set"** %1, align 8
  %2 = load %"class.std::set"** %1
  %3 = getelementptr inbounds %"class.std::set"* %2, i32 0, i32 0
  %4 = call i64 @_ZNKSt8_Rb_treeIiiSt9_IdentityIiESt4lessIiESaIiEE4sizeEv(%"class.std::_Rb_tree"* %3)
  ret i64 %4
}

; Function Attrs: uwtable
define linkonce_odr void @_ZNSt3setIiSt4lessIiESaIiEE5clearEv(%"class.std::set"* %this) #2 align 2 {
  %1 = alloca %"class.std::set"*, align 8
  store %"class.std::set"* %this, %"class.std::set"** %1, align 8
  %2 = load %"class.std::set"** %1
  %3 = getelementptr inbounds %"class.std::set"* %2, i32 0, i32 0
  call void @_ZNSt8_Rb_treeIiiSt9_IdentityIiESt4lessIiESaIiEE5clearEv(%"class.std::_Rb_tree"* %3)
  ret void
}

; Function Attrs: nounwind uwtable
define linkonce_odr %"struct.std::_Bit_reference"* @_ZNSt14_Bit_referenceaSEb(%"struct.std::_Bit_reference"* %this, i1 zeroext %__x) #5 align 2 {
  %1 = alloca %"struct.std::_Bit_reference"*, align 8
  %2 = alloca i8, align 1
  store %"struct.std::_Bit_reference"* %this, %"struct.std::_Bit_reference"** %1, align 8
  %3 = zext i1 %__x to i8
  store i8 %3, i8* %2, align 1
  %4 = load %"struct.std::_Bit_reference"** %1
  %5 = load i8* %2, align 1
  %6 = trunc i8 %5 to i1
  br i1 %6, label %7, label %14

; <label>:7                                       ; preds = %0
  %8 = getelementptr inbounds %"struct.std::_Bit_reference"* %4, i32 0, i32 1
  %9 = load i64* %8, align 8
  %10 = getelementptr inbounds %"struct.std::_Bit_reference"* %4, i32 0, i32 0
  %11 = load i64** %10, align 8
  %12 = load i64* %11, align 8
  %13 = or i64 %12, %9
  store i64 %13, i64* %11, align 8
  br label %22

; <label>:14                                      ; preds = %0
  %15 = getelementptr inbounds %"struct.std::_Bit_reference"* %4, i32 0, i32 1
  %16 = load i64* %15, align 8
  %17 = xor i64 %16, -1
  %18 = getelementptr inbounds %"struct.std::_Bit_reference"* %4, i32 0, i32 0
  %19 = load i64** %18, align 8
  %20 = load i64* %19, align 8
  %21 = and i64 %20, %17
  store i64 %21, i64* %19, align 8
  br label %22

; <label>:22                                      ; preds = %14, %7
  ret %"struct.std::_Bit_reference"* %4
}

; Function Attrs: uwtable
define void @_ZN5graph14find_dominatorEii(%class.graph* %this, i32 %start, i32 %end) #2 align 2 {
  %1 = alloca %class.graph*, align 8
  %2 = alloca i32, align 4
  %3 = alloca i32, align 4
  %change_flag = alloca i8, align 1
  %total = alloca i32, align 4
  store %class.graph* %this, %class.graph** %1, align 8
  store i32 %start, i32* %2, align 4
  store i32 %end, i32* %3, align 4
  %4 = load %class.graph** %1
  store i8 0, i8* %change_flag, align 1
  %5 = load i32* %2, align 4
  call void @_ZN5graph11create_edgeEii(%class.graph* %4, i32 %5, i32 0)
  %6 = load i32* %3, align 4
  %7 = add nsw i32 %6, 1
  %8 = load i32* %3, align 4
  call void @_ZN5graph11create_edgeEii(%class.graph* %4, i32 %7, i32 %8)
  %9 = getelementptr inbounds %class.graph* %4, i32 0, i32 0
  %10 = call i64 @_ZNKSt6vectorIS_IiSaIiEESaIS1_EE4sizeEv(%"class.std::vector"* %9)
  %11 = trunc i64 %10 to i32
  store i32 %11, i32* %total, align 4
  br label %12

; <label>:12                                      ; preds = %15, %0
  %13 = call zeroext i1 @_ZN5graph19intersect_dominatorEv(%class.graph* %4)
  %14 = zext i1 %13 to i8
  store i8 %14, i8* %change_flag, align 1
  br label %15

; <label>:15                                      ; preds = %12
  %16 = load i8* %change_flag, align 1
  %17 = trunc i8 %16 to i1
  br i1 %17, label %12, label %18

; <label>:18                                      ; preds = %15
  ret void
}

; Function Attrs: uwtable
define void @_ZN5graph15add_loop_memberEii(%class.graph* %this, i32 %src, i32 %tail) #2 align 2 {
  %1 = alloca %class.graph*, align 8
  %2 = alloca i32, align 4
  %3 = alloca i32, align 4
  %loop = alloca %"class.std::set", align 8
  %sizel = alloca i32, align 4
  %4 = alloca i8*
  %5 = alloca i32
  %flag = alloca %"class.std::vector.5", align 8
  %6 = alloca i8, align 1
  %7 = alloca %"class.std::allocator.18", align 1
  %itq = alloca %"class.std::queue", align 8
  %8 = alloca %"class.std::deque", align 8
  %i = alloca i32, align 4
  %elem = alloca i32, align 4
  %9 = alloca %"struct.std::pair", align 8
  %10 = alloca %"struct.std::pair", align 8
  %11 = alloca %"struct.std::_Bit_reference", align 8
  %12 = alloca %"struct.std::_Bit_reference", align 8
  %13 = alloca %"struct.std::_Bit_reference", align 8
  %14 = alloca %"struct.std::_Bit_reference", align 8
  %15 = alloca %"struct.std::pair", align 8
  store %class.graph* %this, %class.graph** %1, align 8
  store i32 %src, i32* %2, align 4
  store i32 %tail, i32* %3, align 4
  %16 = load %class.graph** %1
  call void @_ZNSt3setIiSt4lessIiESaIiEEC2Ev(%"class.std::set"* %loop)
  %17 = getelementptr inbounds %class.graph* %16, i32 0, i32 0
  %18 = invoke i64 @_ZNKSt6vectorIS_IiSaIiEESaIS1_EE4sizeEv(%"class.std::vector"* %17)
          to label %19 unwind label %88

; <label>:19                                      ; preds = %0
  %20 = trunc i64 %18 to i32
  store i32 %20, i32* %sizel, align 4
  %21 = load i32* %sizel, align 4
  %22 = sext i32 %21 to i64
  store i8 0, i8* %6
  call void @_ZNSaIbEC2Ev(%"class.std::allocator.18"* %7) #1
  invoke void @_ZNSt6vectorIbSaIbEEC2EmRKbRKS0_(%"class.std::vector.5"* %flag, i64 %22, i8* %6, %"class.std::allocator.18"* %7)
          to label %23 unwind label %92

; <label>:23                                      ; preds = %19
  call void @_ZNSaIbED2Ev(%"class.std::allocator.18"* %7) #1
  invoke void @_ZNSt5dequeIiSaIiEEC2Ev(%"class.std::deque"* %8)
          to label %24 unwind label %96

; <label>:24                                      ; preds = %23
  invoke void @_ZNSt5queueIiSt5dequeIiSaIiEEEC2ERKS2_(%"class.std::queue"* %itq, %"class.std::deque"* %8)
          to label %25 unwind label %100

; <label>:25                                      ; preds = %24
  invoke void @_ZNSt5dequeIiSaIiEED2Ev(%"class.std::deque"* %8)
          to label %26 unwind label %96

; <label>:26                                      ; preds = %25
  %27 = invoke { %"struct.std::_Rb_tree_node_base"*, i8 } @_ZNSt3setIiSt4lessIiESaIiEE6insertERKi(%"class.std::set"* %loop, i32* %2)
          to label %28 unwind label %105

; <label>:28                                      ; preds = %26
  %29 = bitcast %"struct.std::pair"* %9 to { %"struct.std::_Rb_tree_node_base"*, i8 }*
  %30 = getelementptr { %"struct.std::_Rb_tree_node_base"*, i8 }* %29, i32 0, i32 0
  %31 = extractvalue { %"struct.std::_Rb_tree_node_base"*, i8 } %27, 0
  store %"struct.std::_Rb_tree_node_base"* %31, %"struct.std::_Rb_tree_node_base"** %30, align 1
  %32 = getelementptr { %"struct.std::_Rb_tree_node_base"*, i8 }* %29, i32 0, i32 1
  %33 = extractvalue { %"struct.std::_Rb_tree_node_base"*, i8 } %27, 1
  store i8 %33, i8* %32, align 1
  %34 = invoke { %"struct.std::_Rb_tree_node_base"*, i8 } @_ZNSt3setIiSt4lessIiESaIiEE6insertERKi(%"class.std::set"* %loop, i32* %3)
          to label %35 unwind label %105

; <label>:35                                      ; preds = %28
  %36 = bitcast %"struct.std::pair"* %10 to { %"struct.std::_Rb_tree_node_base"*, i8 }*
  %37 = getelementptr { %"struct.std::_Rb_tree_node_base"*, i8 }* %36, i32 0, i32 0
  %38 = extractvalue { %"struct.std::_Rb_tree_node_base"*, i8 } %34, 0
  store %"struct.std::_Rb_tree_node_base"* %38, %"struct.std::_Rb_tree_node_base"** %37, align 1
  %39 = getelementptr { %"struct.std::_Rb_tree_node_base"*, i8 }* %36, i32 0, i32 1
  %40 = extractvalue { %"struct.std::_Rb_tree_node_base"*, i8 } %34, 1
  store i8 %40, i8* %39, align 1
  %41 = load i32* %2, align 4
  %42 = sext i32 %41 to i64
  %43 = invoke { i64*, i64 } @_ZNSt6vectorIbSaIbEEixEm(%"class.std::vector.5"* %flag, i64 %42)
          to label %44 unwind label %105

; <label>:44                                      ; preds = %35
  %45 = bitcast %"struct.std::_Bit_reference"* %11 to { i64*, i64 }*
  %46 = getelementptr { i64*, i64 }* %45, i32 0, i32 0
  %47 = extractvalue { i64*, i64 } %43, 0
  store i64* %47, i64** %46, align 1
  %48 = getelementptr { i64*, i64 }* %45, i32 0, i32 1
  %49 = extractvalue { i64*, i64 } %43, 1
  store i64 %49, i64* %48, align 1
  %50 = invoke %"struct.std::_Bit_reference"* @_ZNSt14_Bit_referenceaSEb(%"struct.std::_Bit_reference"* %11, i1 zeroext true)
          to label %51 unwind label %105

; <label>:51                                      ; preds = %44
  %52 = load i32* %3, align 4
  %53 = sext i32 %52 to i64
  %54 = invoke { i64*, i64 } @_ZNSt6vectorIbSaIbEEixEm(%"class.std::vector.5"* %flag, i64 %53)
          to label %55 unwind label %105

; <label>:55                                      ; preds = %51
  %56 = bitcast %"struct.std::_Bit_reference"* %12 to { i64*, i64 }*
  %57 = getelementptr { i64*, i64 }* %56, i32 0, i32 0
  %58 = extractvalue { i64*, i64 } %54, 0
  store i64* %58, i64** %57, align 1
  %59 = getelementptr { i64*, i64 }* %56, i32 0, i32 1
  %60 = extractvalue { i64*, i64 } %54, 1
  store i64 %60, i64* %59, align 1
  %61 = invoke %"struct.std::_Bit_reference"* @_ZNSt14_Bit_referenceaSEb(%"struct.std::_Bit_reference"* %12, i1 zeroext true)
          to label %62 unwind label %105

; <label>:62                                      ; preds = %55
  store i32 0, i32* %i, align 4
  br label %63

; <label>:63                                      ; preds = %85, %62
  %64 = load i32* %i, align 4
  %65 = sext i32 %64 to i64
  %66 = getelementptr inbounds %class.graph* %16, i32 0, i32 0
  %67 = load i32* %3, align 4
  %68 = sext i32 %67 to i64
  %69 = invoke %"class.std::vector.0"* @_ZNSt6vectorIS_IiSaIiEESaIS1_EEixEm(%"class.std::vector"* %66, i64 %68)
          to label %70 unwind label %105

; <label>:70                                      ; preds = %63
  %71 = invoke i64 @_ZNKSt6vectorIiSaIiEE4sizeEv(%"class.std::vector.0"* %69)
          to label %72 unwind label %105

; <label>:72                                      ; preds = %70
  %73 = icmp ult i64 %65, %71
  br i1 %73, label %74, label %109

; <label>:74                                      ; preds = %72
  %75 = getelementptr inbounds %class.graph* %16, i32 0, i32 0
  %76 = load i32* %3, align 4
  %77 = sext i32 %76 to i64
  %78 = invoke %"class.std::vector.0"* @_ZNSt6vectorIS_IiSaIiEESaIS1_EEixEm(%"class.std::vector"* %75, i64 %77)
          to label %79 unwind label %105

; <label>:79                                      ; preds = %74
  %80 = load i32* %i, align 4
  %81 = sext i32 %80 to i64
  %82 = invoke i32* @_ZNSt6vectorIiSaIiEEixEm(%"class.std::vector.0"* %78, i64 %81)
          to label %83 unwind label %105

; <label>:83                                      ; preds = %79
  invoke void @_ZNSt5queueIiSt5dequeIiSaIiEEE4pushERKi(%"class.std::queue"* %itq, i32* %82)
          to label %84 unwind label %105

; <label>:84                                      ; preds = %83
  br label %85

; <label>:85                                      ; preds = %84
  %86 = load i32* %i, align 4
  %87 = add nsw i32 %86, 1
  store i32 %87, i32* %i, align 4
  br label %63

; <label>:88                                      ; preds = %179, %0
  %89 = landingpad { i8*, i32 } personality i8* bitcast (i32 (...)* @__gxx_personality_v0 to i8*)
          cleanup
  %90 = extractvalue { i8*, i32 } %89, 0
  store i8* %90, i8** %4
  %91 = extractvalue { i8*, i32 } %89, 1
  store i32 %91, i32* %5
  br label %184

; <label>:92                                      ; preds = %19
  %93 = landingpad { i8*, i32 } personality i8* bitcast (i32 (...)* @__gxx_personality_v0 to i8*)
          cleanup
  %94 = extractvalue { i8*, i32 } %93, 0
  store i8* %94, i8** %4
  %95 = extractvalue { i8*, i32 } %93, 1
  store i32 %95, i32* %5
  call void @_ZNSaIbED2Ev(%"class.std::allocator.18"* %7) #1
  br label %184

; <label>:96                                      ; preds = %178, %25, %23
  %97 = landingpad { i8*, i32 } personality i8* bitcast (i32 (...)* @__gxx_personality_v0 to i8*)
          cleanup
  %98 = extractvalue { i8*, i32 } %97, 0
  store i8* %98, i8** %4
  %99 = extractvalue { i8*, i32 } %97, 1
  store i32 %99, i32* %5
  br label %182

; <label>:100                                     ; preds = %24
  %101 = landingpad { i8*, i32 } personality i8* bitcast (i32 (...)* @__gxx_personality_v0 to i8*)
          cleanup
  %102 = extractvalue { i8*, i32 } %101, 0
  store i8* %102, i8** %4
  %103 = extractvalue { i8*, i32 } %101, 1
  store i32 %103, i32* %5
  invoke void @_ZNSt5dequeIiSaIiEED2Ev(%"class.std::deque"* %8)
          to label %104 unwind label %191

; <label>:104                                     ; preds = %100
  br label %182

; <label>:105                                     ; preds = %176, %169, %165, %160, %156, %149, %141, %134, %130, %122, %118, %116, %114, %110, %83, %79, %74, %70, %63, %55, %51, %44, %35, %28, %26
  %106 = landingpad { i8*, i32 } personality i8* bitcast (i32 (...)* @__gxx_personality_v0 to i8*)
          cleanup
  %107 = extractvalue { i8*, i32 } %106, 0
  store i8* %107, i8** %4
  %108 = extractvalue { i8*, i32 } %106, 1
  store i32 %108, i32* %5
  invoke void @_ZNSt5queueIiSt5dequeIiSaIiEEED2Ev(%"class.std::queue"* %itq)
          to label %181 unwind label %191

; <label>:109                                     ; preds = %72
  br label %110

; <label>:110                                     ; preds = %175, %109
  %111 = invoke zeroext i1 @_ZNKSt5queueIiSt5dequeIiSaIiEEE5emptyEv(%"class.std::queue"* %itq)
          to label %112 unwind label %105

; <label>:112                                     ; preds = %110
  %113 = xor i1 %111, true
  br i1 %113, label %114, label %176

; <label>:114                                     ; preds = %112
  %115 = invoke i32* @_ZNSt5queueIiSt5dequeIiSaIiEEE5frontEv(%"class.std::queue"* %itq)
          to label %116 unwind label %105

; <label>:116                                     ; preds = %114
  %117 = load i32* %115
  store i32 %117, i32* %elem, align 4
  invoke void @_ZNSt5queueIiSt5dequeIiSaIiEEE3popEv(%"class.std::queue"* %itq)
          to label %118 unwind label %105

; <label>:118                                     ; preds = %116
  %119 = load i32* %elem, align 4
  %120 = sext i32 %119 to i64
  %121 = invoke { i64*, i64 } @_ZNSt6vectorIbSaIbEEixEm(%"class.std::vector.5"* %flag, i64 %120)
          to label %122 unwind label %105

; <label>:122                                     ; preds = %118
  %123 = bitcast %"struct.std::_Bit_reference"* %13 to { i64*, i64 }*
  %124 = getelementptr { i64*, i64 }* %123, i32 0, i32 0
  %125 = extractvalue { i64*, i64 } %121, 0
  store i64* %125, i64** %124, align 1
  %126 = getelementptr { i64*, i64 }* %123, i32 0, i32 1
  %127 = extractvalue { i64*, i64 } %121, 1
  store i64 %127, i64* %126, align 1
  %128 = invoke zeroext i1 @_ZNKSt14_Bit_referencecvbEv(%"struct.std::_Bit_reference"* %13)
          to label %129 unwind label %105

; <label>:129                                     ; preds = %122
  br i1 %128, label %175, label %130

; <label>:130                                     ; preds = %129
  %131 = load i32* %elem, align 4
  %132 = sext i32 %131 to i64
  %133 = invoke { i64*, i64 } @_ZNSt6vectorIbSaIbEEixEm(%"class.std::vector.5"* %flag, i64 %132)
          to label %134 unwind label %105

; <label>:134                                     ; preds = %130
  %135 = bitcast %"struct.std::_Bit_reference"* %14 to { i64*, i64 }*
  %136 = getelementptr { i64*, i64 }* %135, i32 0, i32 0
  %137 = extractvalue { i64*, i64 } %133, 0
  store i64* %137, i64** %136, align 1
  %138 = getelementptr { i64*, i64 }* %135, i32 0, i32 1
  %139 = extractvalue { i64*, i64 } %133, 1
  store i64 %139, i64* %138, align 1
  %140 = invoke %"struct.std::_Bit_reference"* @_ZNSt14_Bit_referenceaSEb(%"struct.std::_Bit_reference"* %14, i1 zeroext true)
          to label %141 unwind label %105

; <label>:141                                     ; preds = %134
  %142 = invoke { %"struct.std::_Rb_tree_node_base"*, i8 } @_ZNSt3setIiSt4lessIiESaIiEE6insertERKi(%"class.std::set"* %loop, i32* %elem)
          to label %143 unwind label %105

; <label>:143                                     ; preds = %141
  %144 = bitcast %"struct.std::pair"* %15 to { %"struct.std::_Rb_tree_node_base"*, i8 }*
  %145 = getelementptr { %"struct.std::_Rb_tree_node_base"*, i8 }* %144, i32 0, i32 0
  %146 = extractvalue { %"struct.std::_Rb_tree_node_base"*, i8 } %142, 0
  store %"struct.std::_Rb_tree_node_base"* %146, %"struct.std::_Rb_tree_node_base"** %145, align 1
  %147 = getelementptr { %"struct.std::_Rb_tree_node_base"*, i8 }* %144, i32 0, i32 1
  %148 = extractvalue { %"struct.std::_Rb_tree_node_base"*, i8 } %142, 1
  store i8 %148, i8* %147, align 1
  store i32 0, i32* %i, align 4
  br label %149

; <label>:149                                     ; preds = %171, %143
  %150 = load i32* %i, align 4
  %151 = sext i32 %150 to i64
  %152 = getelementptr inbounds %class.graph* %16, i32 0, i32 0
  %153 = load i32* %elem, align 4
  %154 = sext i32 %153 to i64
  %155 = invoke %"class.std::vector.0"* @_ZNSt6vectorIS_IiSaIiEESaIS1_EEixEm(%"class.std::vector"* %152, i64 %154)
          to label %156 unwind label %105

; <label>:156                                     ; preds = %149
  %157 = invoke i64 @_ZNKSt6vectorIiSaIiEE4sizeEv(%"class.std::vector.0"* %155)
          to label %158 unwind label %105

; <label>:158                                     ; preds = %156
  %159 = icmp ult i64 %151, %157
  br i1 %159, label %160, label %174

; <label>:160                                     ; preds = %158
  %161 = getelementptr inbounds %class.graph* %16, i32 0, i32 0
  %162 = load i32* %elem, align 4
  %163 = sext i32 %162 to i64
  %164 = invoke %"class.std::vector.0"* @_ZNSt6vectorIS_IiSaIiEESaIS1_EEixEm(%"class.std::vector"* %161, i64 %163)
          to label %165 unwind label %105

; <label>:165                                     ; preds = %160
  %166 = load i32* %i, align 4
  %167 = sext i32 %166 to i64
  %168 = invoke i32* @_ZNSt6vectorIiSaIiEEixEm(%"class.std::vector.0"* %164, i64 %167)
          to label %169 unwind label %105

; <label>:169                                     ; preds = %165
  invoke void @_ZNSt5queueIiSt5dequeIiSaIiEEE4pushERKi(%"class.std::queue"* %itq, i32* %168)
          to label %170 unwind label %105

; <label>:170                                     ; preds = %169
  br label %171

; <label>:171                                     ; preds = %170
  %172 = load i32* %i, align 4
  %173 = add nsw i32 %172, 1
  store i32 %173, i32* %i, align 4
  br label %149

; <label>:174                                     ; preds = %158
  br label %175

; <label>:175                                     ; preds = %174, %129
  br label %110

; <label>:176                                     ; preds = %112
  %177 = getelementptr inbounds %class.graph* %16, i32 0, i32 3
  invoke void @_ZNSt6vectorISt3setIiSt4lessIiESaIiEESaIS4_EE9push_backERKS4_(%"class.std::vector.9"* %177, %"class.std::set"* %loop)
          to label %178 unwind label %105

; <label>:178                                     ; preds = %176
  invoke void @_ZNSt5queueIiSt5dequeIiSaIiEEED2Ev(%"class.std::queue"* %itq)
          to label %179 unwind label %96

; <label>:179                                     ; preds = %178
  invoke void @_ZNSt6vectorIbSaIbEED2Ev(%"class.std::vector.5"* %flag)
          to label %180 unwind label %88

; <label>:180                                     ; preds = %179
  call void @_ZNSt3setIiSt4lessIiESaIiEED2Ev(%"class.std::set"* %loop)
  ret void

; <label>:181                                     ; preds = %105
  br label %182

; <label>:182                                     ; preds = %181, %104, %96
  invoke void @_ZNSt6vectorIbSaIbEED2Ev(%"class.std::vector.5"* %flag)
          to label %183 unwind label %191

; <label>:183                                     ; preds = %182
  br label %184

; <label>:184                                     ; preds = %183, %92, %88
  invoke void @_ZNSt3setIiSt4lessIiESaIiEED2Ev(%"class.std::set"* %loop)
          to label %185 unwind label %191

; <label>:185                                     ; preds = %184
  br label %186

; <label>:186                                     ; preds = %185
  %187 = load i8** %4
  %188 = load i32* %5
  %189 = insertvalue { i8*, i32 } undef, i8* %187, 0
  %190 = insertvalue { i8*, i32 } %189, i32 %188, 1
  resume { i8*, i32 } %190

; <label>:191                                     ; preds = %184, %182, %105, %100
  %192 = landingpad { i8*, i32 } personality i8* bitcast (i32 (...)* @__gxx_personality_v0 to i8*)
          catch i8* null
  %193 = extractvalue { i8*, i32 } %192, 0
  call void @__clang_call_terminate(i8* %193) #12
  unreachable
}

; Function Attrs: nounwind uwtable
define linkonce_odr void @_ZNSaIbEC2Ev(%"class.std::allocator.18"* %this) unnamed_addr #5 align 2 {
  %1 = alloca %"class.std::allocator.18"*, align 8
  store %"class.std::allocator.18"* %this, %"class.std::allocator.18"** %1, align 8
  %2 = load %"class.std::allocator.18"** %1
  %3 = bitcast %"class.std::allocator.18"* %2 to %"class.__gnu_cxx::new_allocator.19"*
  call void @_ZN9__gnu_cxx13new_allocatorIbEC2Ev(%"class.__gnu_cxx::new_allocator.19"* %3) #1
  ret void
}

; Function Attrs: uwtable
define linkonce_odr void @_ZNSt6vectorIbSaIbEEC2EmRKbRKS0_(%"class.std::vector.5"* %this, i64 %__n, i8* %__value, %"class.std::allocator.18"* %__a) unnamed_addr #2 align 2 {
  %1 = alloca %"class.std::vector.5"*, align 8
  %2 = alloca i64, align 8
  %3 = alloca i8*, align 8
  %4 = alloca %"class.std::allocator.18"*, align 8
  %5 = alloca i8*
  %6 = alloca i32
  %7 = alloca i32, align 4
  store %"class.std::vector.5"* %this, %"class.std::vector.5"** %1, align 8
  store i64 %__n, i64* %2, align 8
  store i8* %__value, i8** %3, align 8
  store %"class.std::allocator.18"* %__a, %"class.std::allocator.18"** %4, align 8
  %8 = load %"class.std::vector.5"** %1
  %9 = bitcast %"class.std::vector.5"* %8 to %"struct.std::_Bvector_base"*
  %10 = load %"class.std::allocator.18"** %4, align 8
  call void @_ZNSt13_Bvector_baseISaIbEEC2ERKS0_(%"struct.std::_Bvector_base"* %9, %"class.std::allocator.18"* %10)
  %11 = load i64* %2, align 8
  invoke void @_ZNSt6vectorIbSaIbEE13_M_initializeEm(%"class.std::vector.5"* %8, i64 %11)
          to label %12 unwind label %28

; <label>:12                                      ; preds = %0
  %13 = bitcast %"class.std::vector.5"* %8 to %"struct.std::_Bvector_base"*
  %14 = getelementptr inbounds %"struct.std::_Bvector_base"* %13, i32 0, i32 0
  %15 = getelementptr inbounds %"struct.std::_Bvector_base<std::allocator<bool> >::_Bvector_impl"* %14, i32 0, i32 0
  %16 = bitcast %"struct.std::_Bit_iterator"* %15 to %"struct.std::_Bit_iterator_base"*
  %17 = getelementptr inbounds %"struct.std::_Bit_iterator_base"* %16, i32 0, i32 0
  %18 = load i64** %17, align 8
  %19 = bitcast %"class.std::vector.5"* %8 to %"struct.std::_Bvector_base"*
  %20 = getelementptr inbounds %"struct.std::_Bvector_base"* %19, i32 0, i32 0
  %21 = getelementptr inbounds %"struct.std::_Bvector_base<std::allocator<bool> >::_Bvector_impl"* %20, i32 0, i32 2
  %22 = load i64** %21, align 8
  %23 = load i8** %3, align 8
  %24 = load i8* %23, align 1
  %25 = trunc i8 %24 to i1
  %26 = select i1 %25, i32 -1, i32 0
  store i32 %26, i32* %7
  invoke void @_ZSt4fillIPmiEvT_S1_RKT0_(i64* %18, i64* %22, i32* %7)
          to label %27 unwind label %28

; <label>:27                                      ; preds = %12
  ret void

; <label>:28                                      ; preds = %12, %0
  %29 = landingpad { i8*, i32 } personality i8* bitcast (i32 (...)* @__gxx_personality_v0 to i8*)
          cleanup
  %30 = extractvalue { i8*, i32 } %29, 0
  store i8* %30, i8** %5
  %31 = extractvalue { i8*, i32 } %29, 1
  store i32 %31, i32* %6
  %32 = bitcast %"class.std::vector.5"* %8 to %"struct.std::_Bvector_base"*
  invoke void @_ZNSt13_Bvector_baseISaIbEED2Ev(%"struct.std::_Bvector_base"* %32)
          to label %33 unwind label %39

; <label>:33                                      ; preds = %28
  br label %34

; <label>:34                                      ; preds = %33
  %35 = load i8** %5
  %36 = load i32* %6
  %37 = insertvalue { i8*, i32 } undef, i8* %35, 0
  %38 = insertvalue { i8*, i32 } %37, i32 %36, 1
  resume { i8*, i32 } %38

; <label>:39                                      ; preds = %28
  %40 = landingpad { i8*, i32 } personality i8* bitcast (i32 (...)* @__gxx_personality_v0 to i8*)
          catch i8* null
  %41 = extractvalue { i8*, i32 } %40, 0
  call void @__clang_call_terminate(i8* %41) #12
  unreachable
}

; Function Attrs: nounwind uwtable
define linkonce_odr void @_ZNSaIbED2Ev(%"class.std::allocator.18"* %this) unnamed_addr #5 align 2 {
  %1 = alloca %"class.std::allocator.18"*, align 8
  store %"class.std::allocator.18"* %this, %"class.std::allocator.18"** %1, align 8
  %2 = load %"class.std::allocator.18"** %1
  %3 = bitcast %"class.std::allocator.18"* %2 to %"class.__gnu_cxx::new_allocator.19"*
  call void @_ZN9__gnu_cxx13new_allocatorIbED2Ev(%"class.__gnu_cxx::new_allocator.19"* %3) #1
  ret void
}

; Function Attrs: uwtable
define linkonce_odr void @_ZNSt5dequeIiSaIiEEC2Ev(%"class.std::deque"* %this) unnamed_addr #2 align 2 {
  %1 = alloca %"class.std::deque"*, align 8
  store %"class.std::deque"* %this, %"class.std::deque"** %1, align 8
  %2 = load %"class.std::deque"** %1
  %3 = bitcast %"class.std::deque"* %2 to %"class.std::_Deque_base"*
  call void @_ZNSt11_Deque_baseIiSaIiEEC2Ev(%"class.std::_Deque_base"* %3)
  ret void
}

; Function Attrs: uwtable
define linkonce_odr void @_ZNSt5queueIiSt5dequeIiSaIiEEEC2ERKS2_(%"class.std::queue"* %this, %"class.std::deque"* %__c) unnamed_addr #2 align 2 {
  %1 = alloca %"class.std::queue"*, align 8
  %2 = alloca %"class.std::deque"*, align 8
  store %"class.std::queue"* %this, %"class.std::queue"** %1, align 8
  store %"class.std::deque"* %__c, %"class.std::deque"** %2, align 8
  %3 = load %"class.std::queue"** %1
  %4 = getelementptr inbounds %"class.std::queue"* %3, i32 0, i32 0
  %5 = load %"class.std::deque"** %2, align 8
  call void @_ZNSt5dequeIiSaIiEEC2ERKS1_(%"class.std::deque"* %4, %"class.std::deque"* %5)
  ret void
}

; Function Attrs: uwtable
define linkonce_odr void @_ZNSt5dequeIiSaIiEED2Ev(%"class.std::deque"* %this) unnamed_addr #2 align 2 {
  %1 = alloca %"class.std::deque"*, align 8
  %2 = alloca %"struct.std::_Deque_iterator", align 8
  %3 = alloca i8*
  %4 = alloca i32
  %5 = alloca %"struct.std::_Deque_iterator", align 8
  store %"class.std::deque"* %this, %"class.std::deque"** %1, align 8
  %6 = load %"class.std::deque"** %1
  invoke void @_ZNSt5dequeIiSaIiEE5beginEv(%"struct.std::_Deque_iterator"* sret %2, %"class.std::deque"* %6)
          to label %7 unwind label %14

; <label>:7                                       ; preds = %0
  invoke void @_ZNSt5dequeIiSaIiEE3endEv(%"struct.std::_Deque_iterator"* sret %5, %"class.std::deque"* %6)
          to label %8 unwind label %14

; <label>:8                                       ; preds = %7
  %9 = bitcast %"class.std::deque"* %6 to %"class.std::_Deque_base"*
  %10 = invoke %"class.std::allocator.2"* @_ZNSt11_Deque_baseIiSaIiEE19_M_get_Tp_allocatorEv(%"class.std::_Deque_base"* %9)
          to label %11 unwind label %14

; <label>:11                                      ; preds = %8
  invoke void @_ZNSt5dequeIiSaIiEE15_M_destroy_dataESt15_Deque_iteratorIiRiPiES5_RKS0_(%"class.std::deque"* %6, %"struct.std::_Deque_iterator"* %2, %"struct.std::_Deque_iterator"* %5, %"class.std::allocator.2"* %10)
          to label %12 unwind label %14

; <label>:12                                      ; preds = %11
  %13 = bitcast %"class.std::deque"* %6 to %"class.std::_Deque_base"*
  call void @_ZNSt11_Deque_baseIiSaIiEED2Ev(%"class.std::_Deque_base"* %13)
  ret void

; <label>:14                                      ; preds = %11, %8, %7, %0
  %15 = landingpad { i8*, i32 } personality i8* bitcast (i32 (...)* @__gxx_personality_v0 to i8*)
          cleanup
  %16 = extractvalue { i8*, i32 } %15, 0
  store i8* %16, i8** %3
  %17 = extractvalue { i8*, i32 } %15, 1
  store i32 %17, i32* %4
  %18 = bitcast %"class.std::deque"* %6 to %"class.std::_Deque_base"*
  invoke void @_ZNSt11_Deque_baseIiSaIiEED2Ev(%"class.std::_Deque_base"* %18)
          to label %19 unwind label %25

; <label>:19                                      ; preds = %14
  br label %20

; <label>:20                                      ; preds = %19
  %21 = load i8** %3
  %22 = load i32* %4
  %23 = insertvalue { i8*, i32 } undef, i8* %21, 0
  %24 = insertvalue { i8*, i32 } %23, i32 %22, 1
  resume { i8*, i32 } %24

; <label>:25                                      ; preds = %14
  %26 = landingpad { i8*, i32 } personality i8* bitcast (i32 (...)* @__gxx_personality_v0 to i8*)
          catch i8* null
  %27 = extractvalue { i8*, i32 } %26, 0
  call void @__clang_call_terminate(i8* %27) #12
  unreachable
}

; Function Attrs: uwtable
define linkonce_odr void @_ZNSt5queueIiSt5dequeIiSaIiEEE4pushERKi(%"class.std::queue"* %this, i32* %__x) #2 align 2 {
  %1 = alloca %"class.std::queue"*, align 8
  %2 = alloca i32*, align 8
  store %"class.std::queue"* %this, %"class.std::queue"** %1, align 8
  store i32* %__x, i32** %2, align 8
  %3 = load %"class.std::queue"** %1
  %4 = getelementptr inbounds %"class.std::queue"* %3, i32 0, i32 0
  %5 = load i32** %2, align 8
  call void @_ZNSt5dequeIiSaIiEE9push_backERKi(%"class.std::deque"* %4, i32* %5)
  ret void
}

; Function Attrs: uwtable
define linkonce_odr zeroext i1 @_ZNKSt5queueIiSt5dequeIiSaIiEEE5emptyEv(%"class.std::queue"* %this) #2 align 2 {
  %1 = alloca %"class.std::queue"*, align 8
  store %"class.std::queue"* %this, %"class.std::queue"** %1, align 8
  %2 = load %"class.std::queue"** %1
  %3 = getelementptr inbounds %"class.std::queue"* %2, i32 0, i32 0
  %4 = call zeroext i1 @_ZNKSt5dequeIiSaIiEE5emptyEv(%"class.std::deque"* %3)
  ret i1 %4
}

; Function Attrs: uwtable
define linkonce_odr i32* @_ZNSt5queueIiSt5dequeIiSaIiEEE5frontEv(%"class.std::queue"* %this) #2 align 2 {
  %1 = alloca %"class.std::queue"*, align 8
  store %"class.std::queue"* %this, %"class.std::queue"** %1, align 8
  %2 = load %"class.std::queue"** %1
  %3 = getelementptr inbounds %"class.std::queue"* %2, i32 0, i32 0
  %4 = call i32* @_ZNSt5dequeIiSaIiEE5frontEv(%"class.std::deque"* %3)
  ret i32* %4
}

; Function Attrs: uwtable
define linkonce_odr void @_ZNSt5queueIiSt5dequeIiSaIiEEE3popEv(%"class.std::queue"* %this) #2 align 2 {
  %1 = alloca %"class.std::queue"*, align 8
  store %"class.std::queue"* %this, %"class.std::queue"** %1, align 8
  %2 = load %"class.std::queue"** %1
  %3 = getelementptr inbounds %"class.std::queue"* %2, i32 0, i32 0
  call void @_ZNSt5dequeIiSaIiEE9pop_frontEv(%"class.std::deque"* %3)
  ret void
}

; Function Attrs: inlinehint uwtable
define linkonce_odr void @_ZNSt5queueIiSt5dequeIiSaIiEEED2Ev(%"class.std::queue"* %this) unnamed_addr #3 align 2 {
  %1 = alloca %"class.std::queue"*, align 8
  store %"class.std::queue"* %this, %"class.std::queue"** %1, align 8
  %2 = load %"class.std::queue"** %1
  %3 = getelementptr inbounds %"class.std::queue"* %2, i32 0, i32 0
  call void @_ZNSt5dequeIiSaIiEED2Ev(%"class.std::deque"* %3)
  ret void
}

; Function Attrs: uwtable
define void @_ZN5graph12natural_loopEv(%class.graph* %this) #2 align 2 {
  %1 = alloca %class.graph*, align 8
  %i = alloca i32, align 4
  %j = alloca i32, align 4
  %lsize = alloca i32, align 4
  %size = alloca i32, align 4
  store %class.graph* %this, %class.graph** %1, align 8
  %2 = load %class.graph** %1
  %3 = getelementptr inbounds %class.graph* %2, i32 0, i32 0
  %4 = call i64 @_ZNKSt6vectorIS_IiSaIiEESaIS1_EE4sizeEv(%"class.std::vector"* %3)
  %5 = trunc i64 %4 to i32
  store i32 %5, i32* %size, align 4
  store i32 0, i32* %i, align 4
  br label %6

; <label>:6                                       ; preds = %47, %0
  %7 = load i32* %i, align 4
  %8 = load i32* %size, align 4
  %9 = icmp slt i32 %7, %8
  br i1 %9, label %10, label %50

; <label>:10                                      ; preds = %6
  %11 = getelementptr inbounds %class.graph* %2, i32 0, i32 0
  %12 = load i32* %i, align 4
  %13 = sext i32 %12 to i64
  %14 = call %"class.std::vector.0"* @_ZNSt6vectorIS_IiSaIiEESaIS1_EEixEm(%"class.std::vector"* %11, i64 %13)
  %15 = call i64 @_ZNKSt6vectorIiSaIiEE4sizeEv(%"class.std::vector.0"* %14)
  %16 = trunc i64 %15 to i32
  store i32 %16, i32* %lsize, align 4
  store i32 0, i32* %j, align 4
  br label %17

; <label>:17                                      ; preds = %43, %10
  %18 = load i32* %j, align 4
  %19 = load i32* %lsize, align 4
  %20 = icmp slt i32 %18, %19
  br i1 %20, label %21, label %46

; <label>:21                                      ; preds = %17
  %22 = load i32* %i, align 4
  %23 = getelementptr inbounds %class.graph* %2, i32 0, i32 0
  %24 = load i32* %i, align 4
  %25 = sext i32 %24 to i64
  %26 = call %"class.std::vector.0"* @_ZNSt6vectorIS_IiSaIiEESaIS1_EEixEm(%"class.std::vector"* %23, i64 %25)
  %27 = load i32* %j, align 4
  %28 = sext i32 %27 to i64
  %29 = call i32* @_ZNSt6vectorIiSaIiEEixEm(%"class.std::vector.0"* %26, i64 %28)
  %30 = load i32* %29
  %31 = call zeroext i1 @_ZN5graph15dominator_checkEii(%class.graph* %2, i32 %22, i32 %30)
  br i1 %31, label %32, label %42

; <label>:32                                      ; preds = %21
  %33 = load i32* %i, align 4
  %34 = getelementptr inbounds %class.graph* %2, i32 0, i32 0
  %35 = load i32* %i, align 4
  %36 = sext i32 %35 to i64
  %37 = call %"class.std::vector.0"* @_ZNSt6vectorIS_IiSaIiEESaIS1_EEixEm(%"class.std::vector"* %34, i64 %36)
  %38 = load i32* %j, align 4
  %39 = sext i32 %38 to i64
  %40 = call i32* @_ZNSt6vectorIiSaIiEEixEm(%"class.std::vector.0"* %37, i64 %39)
  %41 = load i32* %40
  call void @_ZN5graph15add_loop_memberEii(%class.graph* %2, i32 %33, i32 %41)
  br label %42

; <label>:42                                      ; preds = %32, %21
  br label %43

; <label>:43                                      ; preds = %42
  %44 = load i32* %j, align 4
  %45 = add nsw i32 %44, 1
  store i32 %45, i32* %j, align 4
  br label %17

; <label>:46                                      ; preds = %17
  br label %47

; <label>:47                                      ; preds = %46
  %48 = load i32* %i, align 4
  %49 = add nsw i32 %48, 1
  store i32 %49, i32* %i, align 4
  br label %6

; <label>:50                                      ; preds = %6
  ret void
}

; Function Attrs: uwtable
define void @_ZN5graph15print_all_loopsEv(%class.graph* %this) #2 align 2 {
  %1 = alloca %class.graph*, align 8
  %size = alloca i32, align 4
  %it = alloca %"struct.std::_Rb_tree_const_iterator", align 8
  %itend = alloca %"struct.std::_Rb_tree_const_iterator", align 8
  %i = alloca i32, align 4
  %2 = alloca %"struct.std::_Rb_tree_const_iterator", align 8
  %3 = alloca %"struct.std::_Rb_tree_const_iterator", align 8
  store %class.graph* %this, %class.graph** %1, align 8
  %4 = load %class.graph** %1
  %5 = getelementptr inbounds %class.graph* %4, i32 0, i32 3
  %6 = call i64 @_ZNKSt6vectorISt3setIiSt4lessIiESaIiEESaIS4_EE4sizeEv(%"class.std::vector.9"* %5)
  %7 = trunc i64 %6 to i32
  store i32 %7, i32* %size, align 4
  call void @_ZNSt23_Rb_tree_const_iteratorIiEC2Ev(%"struct.std::_Rb_tree_const_iterator"* %it)
  call void @_ZNSt23_Rb_tree_const_iteratorIiEC2Ev(%"struct.std::_Rb_tree_const_iterator"* %itend)
  store i32 0, i32* %i, align 4
  br label %8

; <label>:8                                       ; preds = %43, %0
  %9 = load i32* %i, align 4
  %10 = load i32* %size, align 4
  %11 = icmp slt i32 %9, %10
  br i1 %11, label %12, label %46

; <label>:12                                      ; preds = %8
  %13 = getelementptr inbounds %class.graph* %4, i32 0, i32 3
  %14 = load i32* %i, align 4
  %15 = sext i32 %14 to i64
  %16 = call %"class.std::set"* @_ZNSt6vectorISt3setIiSt4lessIiESaIiEESaIS4_EEixEm(%"class.std::vector.9"* %13, i64 %15)
  %17 = call %"struct.std::_Rb_tree_node_base"* @_ZNKSt3setIiSt4lessIiESaIiEE5beginEv(%"class.std::set"* %16)
  %18 = getelementptr %"struct.std::_Rb_tree_const_iterator"* %2, i32 0, i32 0
  store %"struct.std::_Rb_tree_node_base"* %17, %"struct.std::_Rb_tree_node_base"** %18
  %19 = bitcast %"struct.std::_Rb_tree_const_iterator"* %it to i8*
  %20 = bitcast %"struct.std::_Rb_tree_const_iterator"* %2 to i8*
  call void @llvm.memcpy.p0i8.p0i8.i64(i8* %19, i8* %20, i64 8, i32 8, i1 false)
  %21 = getelementptr inbounds %class.graph* %4, i32 0, i32 3
  %22 = load i32* %i, align 4
  %23 = sext i32 %22 to i64
  %24 = call %"class.std::set"* @_ZNSt6vectorISt3setIiSt4lessIiESaIiEESaIS4_EEixEm(%"class.std::vector.9"* %21, i64 %23)
  %25 = call %"struct.std::_Rb_tree_node_base"* @_ZNKSt3setIiSt4lessIiESaIiEE3endEv(%"class.std::set"* %24)
  %26 = getelementptr %"struct.std::_Rb_tree_const_iterator"* %3, i32 0, i32 0
  store %"struct.std::_Rb_tree_node_base"* %25, %"struct.std::_Rb_tree_node_base"** %26
  %27 = bitcast %"struct.std::_Rb_tree_const_iterator"* %itend to i8*
  %28 = bitcast %"struct.std::_Rb_tree_const_iterator"* %3 to i8*
  call void @llvm.memcpy.p0i8.p0i8.i64(i8* %27, i8* %28, i64 8, i32 8, i1 false)
  %29 = call %"class.std::basic_ostream"* @_ZStlsISt11char_traitsIcEERSt13basic_ostreamIcT_ES5_PKc(%"class.std::basic_ostream"* @_ZSt4cout, i8* getelementptr inbounds ([8 x i8]* @.str4, i32 0, i32 0))
  %30 = load i32* %i, align 4
  %31 = call %"class.std::basic_ostream"* @_ZNSolsEi(%"class.std::basic_ostream"* %29, i32 %30)
  %32 = call %"class.std::basic_ostream"* @_ZStlsISt11char_traitsIcEERSt13basic_ostreamIcT_ES5_PKc(%"class.std::basic_ostream"* %31, i8* getelementptr inbounds ([2 x i8]* @.str1, i32 0, i32 0))
  br label %33

; <label>:33                                      ; preds = %40, %12
  %34 = call zeroext i1 @_ZNKSt23_Rb_tree_const_iteratorIiEneERKS0_(%"struct.std::_Rb_tree_const_iterator"* %it, %"struct.std::_Rb_tree_const_iterator"* %itend)
  br i1 %34, label %35, label %42

; <label>:35                                      ; preds = %33
  %36 = call %"class.std::basic_ostream"* @_ZStlsISt11char_traitsIcEERSt13basic_ostreamIcT_ES5_PKc(%"class.std::basic_ostream"* @_ZSt4cout, i8* getelementptr inbounds ([2 x i8]* @.str3, i32 0, i32 0))
  %37 = call i32* @_ZNKSt23_Rb_tree_const_iteratorIiEdeEv(%"struct.std::_Rb_tree_const_iterator"* %it)
  %38 = load i32* %37
  %39 = call %"class.std::basic_ostream"* @_ZNSolsEi(%"class.std::basic_ostream"* %36, i32 %38)
  br label %40

; <label>:40                                      ; preds = %35
  %41 = call %"struct.std::_Rb_tree_const_iterator"* @_ZNSt23_Rb_tree_const_iteratorIiEppEv(%"struct.std::_Rb_tree_const_iterator"* %it)
  br label %33

; <label>:42                                      ; preds = %33
  br label %43

; <label>:43                                      ; preds = %42
  %44 = load i32* %i, align 4
  %45 = add nsw i32 %44, 1
  store i32 %45, i32* %i, align 4
  br label %8

; <label>:46                                      ; preds = %8
  ret void
}

; Function Attrs: uwtable
define void @_ZN5graph8cal_idomEv(%class.graph* %this) #2 align 2 {
  %1 = alloca %class.graph*, align 8
  %it = alloca %"struct.std::_Rb_tree_const_iterator", align 8
  %i = alloca i32, align 4
  %cur = alloca i32, align 4
  %j = alloca i32, align 4
  %cur1 = alloca i32, align 4
  %isize = alloca i32, align 4
  %alldom = alloca %"class.std::set", align 8
  %tmpset = alloca %"class.std::set", align 8
  %2 = alloca i8*
  %3 = alloca i32
  %itend = alloca %"struct.std::_Rb_tree_const_iterator", align 8
  %removable = alloca %"class.std::vector.0", align 8
  %4 = alloca %"struct.std::_Rb_tree_const_iterator", align 8
  %5 = alloca %"struct.std::_Rb_tree_const_iterator", align 8
  %it1end = alloca %"struct.std::_Rb_tree_const_iterator", align 8
  %it1 = alloca %"struct.std::_Rb_tree_const_iterator", align 8
  %6 = alloca %"struct.std::_Rb_tree_const_iterator", align 8
  %7 = alloca %"struct.std::_Rb_tree_const_iterator", align 8
  %8 = alloca %"struct.std::pair", align 8
  %9 = alloca %"struct.std::_Rb_tree_const_iterator", align 8
  store %class.graph* %this, %class.graph** %1, align 8
  %10 = load %class.graph** %1
  call void @_ZNSt23_Rb_tree_const_iteratorIiEC2Ev(%"struct.std::_Rb_tree_const_iterator"* %it)
  %11 = getelementptr inbounds %class.graph* %10, i32 0, i32 2
  %12 = call i64 @_ZNKSt6vectorISt3setIiSt4lessIiESaIiEESaIS4_EE4sizeEv(%"class.std::vector.9"* %11)
  %13 = trunc i64 %12 to i32
  store i32 %13, i32* %isize, align 4
  store i32 0, i32* %i, align 4
  br label %14

; <label>:14                                      ; preds = %161, %0
  %15 = load i32* %i, align 4
  %16 = load i32* %isize, align 4
  %17 = icmp slt i32 %15, %16
  br i1 %17, label %18, label %169

; <label>:18                                      ; preds = %14
  call void @_ZNSt3setIiSt4lessIiESaIiEEC2Ev(%"class.std::set"* %alldom)
  %19 = getelementptr inbounds %class.graph* %10, i32 0, i32 2
  %20 = load i32* %i, align 4
  %21 = sext i32 %20 to i64
  %22 = invoke %"class.std::set"* @_ZNSt6vectorISt3setIiSt4lessIiESaIiEESaIS4_EEixEm(%"class.std::vector.9"* %19, i64 %21)
          to label %23 unwind label %48

; <label>:23                                      ; preds = %18
  invoke void @_ZNSt3setIiSt4lessIiESaIiEEC2ERKS3_(%"class.std::set"* %tmpset, %"class.std::set"* %22)
          to label %24 unwind label %48

; <label>:24                                      ; preds = %23
  %25 = invoke %"struct.std::_Rb_tree_node_base"* @_ZNKSt3setIiSt4lessIiESaIiEE3endEv(%"class.std::set"* %tmpset)
          to label %26 unwind label %52

; <label>:26                                      ; preds = %24
  %27 = getelementptr %"struct.std::_Rb_tree_const_iterator"* %itend, i32 0, i32 0
  store %"struct.std::_Rb_tree_node_base"* %25, %"struct.std::_Rb_tree_node_base"** %27
  invoke void @_ZNSt6vectorIiSaIiEEC2Ev(%"class.std::vector.0"* %removable)
          to label %28 unwind label %52

; <label>:28                                      ; preds = %26
  %29 = invoke i64 @_ZNSt3setIiSt4lessIiESaIiEE5eraseERKi(%"class.std::set"* %tmpset, i32* %i)
          to label %30 unwind label %56

; <label>:30                                      ; preds = %28
  %31 = invoke %"struct.std::_Rb_tree_node_base"* @_ZNKSt3setIiSt4lessIiESaIiEE5beginEv(%"class.std::set"* %tmpset)
          to label %32 unwind label %56

; <label>:32                                      ; preds = %30
  %33 = getelementptr %"struct.std::_Rb_tree_const_iterator"* %4, i32 0, i32 0
  store %"struct.std::_Rb_tree_node_base"* %31, %"struct.std::_Rb_tree_node_base"** %33
  %34 = bitcast %"struct.std::_Rb_tree_const_iterator"* %it to i8*
  %35 = bitcast %"struct.std::_Rb_tree_const_iterator"* %4 to i8*
  call void @llvm.memcpy.p0i8.p0i8.i64(i8* %34, i8* %35, i64 8, i32 8, i1 false)
  %36 = invoke i64 @_ZNKSt3setIiSt4lessIiESaIiEE4sizeEv(%"class.std::set"* %tmpset)
          to label %37 unwind label %56

; <label>:37                                      ; preds = %32
  %38 = icmp eq i64 %36, 1
  br i1 %38, label %39, label %60

; <label>:39                                      ; preds = %37
  %40 = invoke i32* @_ZNKSt23_Rb_tree_const_iteratorIiEdeEv(%"struct.std::_Rb_tree_const_iterator"* %it)
          to label %41 unwind label %56

; <label>:41                                      ; preds = %39
  %42 = load i32* %40
  %43 = getelementptr inbounds %class.graph* %10, i32 0, i32 4
  %44 = load i32* %i, align 4
  %45 = sext i32 %44 to i64
  %46 = invoke i32* @_ZNSt6vectorIiSaIiEEixEm(%"class.std::vector.0"* %43, i64 %45)
          to label %47 unwind label %56

; <label>:47                                      ; preds = %41
  store i32 %42, i32* %46
  br label %158

; <label>:48                                      ; preds = %159, %23, %18
  %49 = landingpad { i8*, i32 } personality i8* bitcast (i32 (...)* @__gxx_personality_v0 to i8*)
          cleanup
  %50 = extractvalue { i8*, i32 } %49, 0
  store i8* %50, i8** %2
  %51 = extractvalue { i8*, i32 } %49, 1
  store i32 %51, i32* %3
  br label %167

; <label>:52                                      ; preds = %158, %26, %24
  %53 = landingpad { i8*, i32 } personality i8* bitcast (i32 (...)* @__gxx_personality_v0 to i8*)
          cleanup
  %54 = extractvalue { i8*, i32 } %53, 0
  store i8* %54, i8** %2
  %55 = extractvalue { i8*, i32 } %53, 1
  store i32 %55, i32* %3
  br label %165

; <label>:56                                      ; preds = %150, %145, %143, %139, %133, %129, %123, %119, %115, %106, %104, %100, %97, %94, %92, %89, %85, %79, %77, %71, %69, %66, %60, %41, %39, %32, %30, %28
  %57 = landingpad { i8*, i32 } personality i8* bitcast (i32 (...)* @__gxx_personality_v0 to i8*)
          cleanup
  %58 = extractvalue { i8*, i32 } %57, 0
  store i8* %58, i8** %2
  %59 = extractvalue { i8*, i32 } %57, 1
  store i32 %59, i32* %3
  invoke void @_ZNSt6vectorIiSaIiEED2Ev(%"class.std::vector.0"* %removable)
          to label %164 unwind label %197

; <label>:60                                      ; preds = %37
  %61 = invoke %"struct.std::_Rb_tree_node_base"* @_ZNKSt3setIiSt4lessIiESaIiEE5beginEv(%"class.std::set"* %tmpset)
          to label %62 unwind label %56

; <label>:62                                      ; preds = %60
  %63 = getelementptr %"struct.std::_Rb_tree_const_iterator"* %5, i32 0, i32 0
  store %"struct.std::_Rb_tree_node_base"* %61, %"struct.std::_Rb_tree_node_base"** %63
  %64 = bitcast %"struct.std::_Rb_tree_const_iterator"* %it to i8*
  %65 = bitcast %"struct.std::_Rb_tree_const_iterator"* %5 to i8*
  call void @llvm.memcpy.p0i8.p0i8.i64(i8* %64, i8* %65, i64 8, i32 8, i1 false)
  br label %66

; <label>:66                                      ; preds = %121, %62
  %67 = invoke zeroext i1 @_ZNKSt23_Rb_tree_const_iteratorIiEneERKS0_(%"struct.std::_Rb_tree_const_iterator"* %it, %"struct.std::_Rb_tree_const_iterator"* %itend)
          to label %68 unwind label %56

; <label>:68                                      ; preds = %66
  br i1 %67, label %69, label %122

; <label>:69                                      ; preds = %68
  %70 = invoke i32* @_ZNKSt23_Rb_tree_const_iteratorIiEdeEv(%"struct.std::_Rb_tree_const_iterator"* %it)
          to label %71 unwind label %56

; <label>:71                                      ; preds = %69
  %72 = load i32* %70
  store i32 %72, i32* %cur, align 4
  %73 = getelementptr inbounds %class.graph* %10, i32 0, i32 2
  %74 = load i32* %cur, align 4
  %75 = sext i32 %74 to i64
  %76 = invoke %"class.std::set"* @_ZNSt6vectorISt3setIiSt4lessIiESaIiEESaIS4_EEixEm(%"class.std::vector.9"* %73, i64 %75)
          to label %77 unwind label %56

; <label>:77                                      ; preds = %71
  %78 = invoke %"struct.std::_Rb_tree_node_base"* @_ZNKSt3setIiSt4lessIiESaIiEE3endEv(%"class.std::set"* %76)
          to label %79 unwind label %56

; <label>:79                                      ; preds = %77
  %80 = getelementptr %"struct.std::_Rb_tree_const_iterator"* %it1end, i32 0, i32 0
  store %"struct.std::_Rb_tree_node_base"* %78, %"struct.std::_Rb_tree_node_base"** %80
  %81 = getelementptr inbounds %class.graph* %10, i32 0, i32 2
  %82 = load i32* %cur, align 4
  %83 = sext i32 %82 to i64
  %84 = invoke %"class.std::set"* @_ZNSt6vectorISt3setIiSt4lessIiESaIiEESaIS4_EEixEm(%"class.std::vector.9"* %81, i64 %83)
          to label %85 unwind label %56

; <label>:85                                      ; preds = %79
  %86 = invoke %"struct.std::_Rb_tree_node_base"* @_ZNKSt3setIiSt4lessIiESaIiEE5beginEv(%"class.std::set"* %84)
          to label %87 unwind label %56

; <label>:87                                      ; preds = %85
  %88 = getelementptr %"struct.std::_Rb_tree_const_iterator"* %it1, i32 0, i32 0
  store %"struct.std::_Rb_tree_node_base"* %86, %"struct.std::_Rb_tree_node_base"** %88
  br label %89

; <label>:89                                      ; preds = %117, %87
  %90 = invoke zeroext i1 @_ZNKSt23_Rb_tree_const_iteratorIiEneERKS0_(%"struct.std::_Rb_tree_const_iterator"* %it1, %"struct.std::_Rb_tree_const_iterator"* %it1end)
          to label %91 unwind label %56

; <label>:91                                      ; preds = %89
  br i1 %90, label %92, label %118

; <label>:92                                      ; preds = %91
  %93 = invoke i32* @_ZNKSt23_Rb_tree_const_iteratorIiEdeEv(%"struct.std::_Rb_tree_const_iterator"* %it1)
          to label %94 unwind label %56

; <label>:94                                      ; preds = %92
  %95 = load i32* %93
  store i32 %95, i32* %cur1, align 4
  %96 = invoke %"struct.std::_Rb_tree_node_base"* @_ZNSt3setIiSt4lessIiESaIiEE4findERKi(%"class.std::set"* %alldom, i32* %cur1)
          to label %97 unwind label %56

; <label>:97                                      ; preds = %94
  %98 = getelementptr %"struct.std::_Rb_tree_const_iterator"* %6, i32 0, i32 0
  store %"struct.std::_Rb_tree_node_base"* %96, %"struct.std::_Rb_tree_node_base"** %98
  %99 = invoke %"struct.std::_Rb_tree_node_base"* @_ZNKSt3setIiSt4lessIiESaIiEE3endEv(%"class.std::set"* %alldom)
          to label %100 unwind label %56

; <label>:100                                     ; preds = %97
  %101 = getelementptr %"struct.std::_Rb_tree_const_iterator"* %7, i32 0, i32 0
  store %"struct.std::_Rb_tree_node_base"* %99, %"struct.std::_Rb_tree_node_base"** %101
  %102 = invoke zeroext i1 @_ZNKSt23_Rb_tree_const_iteratorIiEneERKS0_(%"struct.std::_Rb_tree_const_iterator"* %6, %"struct.std::_Rb_tree_const_iterator"* %7)
          to label %103 unwind label %56

; <label>:103                                     ; preds = %100
  br i1 %102, label %104, label %106

; <label>:104                                     ; preds = %103
  invoke void @_ZNSt6vectorIiSaIiEE9push_backERKi(%"class.std::vector.0"* %removable, i32* %cur1)
          to label %105 unwind label %56

; <label>:105                                     ; preds = %104
  br label %114

; <label>:106                                     ; preds = %103
  %107 = invoke { %"struct.std::_Rb_tree_node_base"*, i8 } @_ZNSt3setIiSt4lessIiESaIiEE6insertERKi(%"class.std::set"* %alldom, i32* %cur1)
          to label %108 unwind label %56

; <label>:108                                     ; preds = %106
  %109 = bitcast %"struct.std::pair"* %8 to { %"struct.std::_Rb_tree_node_base"*, i8 }*
  %110 = getelementptr { %"struct.std::_Rb_tree_node_base"*, i8 }* %109, i32 0, i32 0
  %111 = extractvalue { %"struct.std::_Rb_tree_node_base"*, i8 } %107, 0
  store %"struct.std::_Rb_tree_node_base"* %111, %"struct.std::_Rb_tree_node_base"** %110, align 1
  %112 = getelementptr { %"struct.std::_Rb_tree_node_base"*, i8 }* %109, i32 0, i32 1
  %113 = extractvalue { %"struct.std::_Rb_tree_node_base"*, i8 } %107, 1
  store i8 %113, i8* %112, align 1
  br label %114

; <label>:114                                     ; preds = %108, %105
  br label %115

; <label>:115                                     ; preds = %114
  %116 = invoke %"struct.std::_Rb_tree_const_iterator"* @_ZNSt23_Rb_tree_const_iteratorIiEppEv(%"struct.std::_Rb_tree_const_iterator"* %it1)
          to label %117 unwind label %56

; <label>:117                                     ; preds = %115
  br label %89

; <label>:118                                     ; preds = %91
  br label %119

; <label>:119                                     ; preds = %118
  %120 = invoke %"struct.std::_Rb_tree_const_iterator"* @_ZNSt23_Rb_tree_const_iteratorIiEppEv(%"struct.std::_Rb_tree_const_iterator"* %it)
          to label %121 unwind label %56

; <label>:121                                     ; preds = %119
  br label %66

; <label>:122                                     ; preds = %68
  store i32 0, i32* %j, align 4
  br label %123

; <label>:123                                     ; preds = %136, %122
  %124 = load i32* %j, align 4
  %125 = sext i32 %124 to i64
  %126 = invoke i64 @_ZNKSt6vectorIiSaIiEE4sizeEv(%"class.std::vector.0"* %removable)
          to label %127 unwind label %56

; <label>:127                                     ; preds = %123
  %128 = icmp ult i64 %125, %126
  br i1 %128, label %129, label %139

; <label>:129                                     ; preds = %127
  %130 = load i32* %j, align 4
  %131 = sext i32 %130 to i64
  %132 = invoke i32* @_ZNSt6vectorIiSaIiEEixEm(%"class.std::vector.0"* %removable, i64 %131)
          to label %133 unwind label %56

; <label>:133                                     ; preds = %129
  %134 = invoke i64 @_ZNSt3setIiSt4lessIiESaIiEE5eraseERKi(%"class.std::set"* %alldom, i32* %132)
          to label %135 unwind label %56

; <label>:135                                     ; preds = %133
  br label %136

; <label>:136                                     ; preds = %135
  %137 = load i32* %j, align 4
  %138 = add nsw i32 %137, 1
  store i32 %138, i32* %j, align 4
  br label %123

; <label>:139                                     ; preds = %127
  %140 = invoke i64 @_ZNKSt3setIiSt4lessIiESaIiEE4sizeEv(%"class.std::set"* %alldom)
          to label %141 unwind label %56

; <label>:141                                     ; preds = %139
  %142 = icmp eq i64 %140, 1
  br i1 %142, label %143, label %157

; <label>:143                                     ; preds = %141
  %144 = invoke %"struct.std::_Rb_tree_node_base"* @_ZNKSt3setIiSt4lessIiESaIiEE5beginEv(%"class.std::set"* %alldom)
          to label %145 unwind label %56

; <label>:145                                     ; preds = %143
  %146 = getelementptr %"struct.std::_Rb_tree_const_iterator"* %9, i32 0, i32 0
  store %"struct.std::_Rb_tree_node_base"* %144, %"struct.std::_Rb_tree_node_base"** %146
  %147 = bitcast %"struct.std::_Rb_tree_const_iterator"* %it to i8*
  %148 = bitcast %"struct.std::_Rb_tree_const_iterator"* %9 to i8*
  call void @llvm.memcpy.p0i8.p0i8.i64(i8* %147, i8* %148, i64 8, i32 8, i1 false)
  %149 = invoke i32* @_ZNKSt23_Rb_tree_const_iteratorIiEdeEv(%"struct.std::_Rb_tree_const_iterator"* %it)
          to label %150 unwind label %56

; <label>:150                                     ; preds = %145
  %151 = load i32* %149
  %152 = getelementptr inbounds %class.graph* %10, i32 0, i32 4
  %153 = load i32* %i, align 4
  %154 = sext i32 %153 to i64
  %155 = invoke i32* @_ZNSt6vectorIiSaIiEEixEm(%"class.std::vector.0"* %152, i64 %154)
          to label %156 unwind label %56

; <label>:156                                     ; preds = %150
  store i32 %151, i32* %155
  br label %157

; <label>:157                                     ; preds = %156, %141
  br label %158

; <label>:158                                     ; preds = %157, %47
  invoke void @_ZNSt6vectorIiSaIiEED2Ev(%"class.std::vector.0"* %removable)
          to label %159 unwind label %52

; <label>:159                                     ; preds = %158
  invoke void @_ZNSt3setIiSt4lessIiESaIiEED2Ev(%"class.std::set"* %tmpset)
          to label %160 unwind label %48

; <label>:160                                     ; preds = %159
  call void @_ZNSt3setIiSt4lessIiESaIiEED2Ev(%"class.std::set"* %alldom)
  br label %161

; <label>:161                                     ; preds = %160
  %162 = load i32* %i, align 4
  %163 = add nsw i32 %162, 1
  store i32 %163, i32* %i, align 4
  br label %14

; <label>:164                                     ; preds = %56
  br label %165

; <label>:165                                     ; preds = %164, %52
  invoke void @_ZNSt3setIiSt4lessIiESaIiEED2Ev(%"class.std::set"* %tmpset)
          to label %166 unwind label %197

; <label>:166                                     ; preds = %165
  br label %167

; <label>:167                                     ; preds = %166, %48
  invoke void @_ZNSt3setIiSt4lessIiESaIiEED2Ev(%"class.std::set"* %alldom)
          to label %168 unwind label %197

; <label>:168                                     ; preds = %167
  br label %192

; <label>:169                                     ; preds = %14
  %170 = call %"class.std::basic_ostream"* @_ZStlsISt11char_traitsIcEERSt13basic_ostreamIcT_ES5_PKc(%"class.std::basic_ostream"* @_ZSt4cout, i8* getelementptr inbounds ([8 x i8]* @.str5, i32 0, i32 0))
  store i32 0, i32* %i, align 4
  br label %171

; <label>:171                                     ; preds = %188, %169
  %172 = load i32* %i, align 4
  %173 = sext i32 %172 to i64
  %174 = getelementptr inbounds %class.graph* %10, i32 0, i32 4
  %175 = call i64 @_ZNKSt6vectorIiSaIiEE4sizeEv(%"class.std::vector.0"* %174)
  %176 = icmp ult i64 %173, %175
  br i1 %176, label %177, label %191

; <label>:177                                     ; preds = %171
  %178 = load i32* %i, align 4
  %179 = call %"class.std::basic_ostream"* @_ZNSolsEi(%"class.std::basic_ostream"* @_ZSt4cout, i32 %178)
  %180 = call %"class.std::basic_ostream"* @_ZStlsISt11char_traitsIcEERSt13basic_ostreamIcT_ES5_PKc(%"class.std::basic_ostream"* %179, i8* getelementptr inbounds ([4 x i8]* @.str2, i32 0, i32 0))
  %181 = getelementptr inbounds %class.graph* %10, i32 0, i32 4
  %182 = load i32* %i, align 4
  %183 = sext i32 %182 to i64
  %184 = call i32* @_ZNSt6vectorIiSaIiEEixEm(%"class.std::vector.0"* %181, i64 %183)
  %185 = load i32* %184
  %186 = call %"class.std::basic_ostream"* @_ZNSolsEi(%"class.std::basic_ostream"* %180, i32 %185)
  %187 = call %"class.std::basic_ostream"* @_ZStlsISt11char_traitsIcEERSt13basic_ostreamIcT_ES5_PKc(%"class.std::basic_ostream"* %186, i8* getelementptr inbounds ([2 x i8]* @.str1, i32 0, i32 0))
  br label %188

; <label>:188                                     ; preds = %177
  %189 = load i32* %i, align 4
  %190 = add nsw i32 %189, 1
  store i32 %190, i32* %i, align 4
  br label %171

; <label>:191                                     ; preds = %171
  ret void

; <label>:192                                     ; preds = %168
  %193 = load i8** %2
  %194 = load i32* %3
  %195 = insertvalue { i8*, i32 } undef, i8* %193, 0
  %196 = insertvalue { i8*, i32 } %195, i32 %194, 1
  resume { i8*, i32 } %196

; <label>:197                                     ; preds = %167, %165, %56
  %198 = landingpad { i8*, i32 } personality i8* bitcast (i32 (...)* @__gxx_personality_v0 to i8*)
          catch i8* null
  %199 = extractvalue { i8*, i32 } %198, 0
  call void @__clang_call_terminate(i8* %199) #12
  unreachable
}

; Function Attrs: uwtable
define linkonce_odr void @_ZNSt3setIiSt4lessIiESaIiEEC2ERKS3_(%"class.std::set"* %this, %"class.std::set"* %__x) unnamed_addr #2 align 2 {
  %1 = alloca %"class.std::set"*, align 8
  %2 = alloca %"class.std::set"*, align 8
  store %"class.std::set"* %this, %"class.std::set"** %1, align 8
  store %"class.std::set"* %__x, %"class.std::set"** %2, align 8
  %3 = load %"class.std::set"** %1
  %4 = getelementptr inbounds %"class.std::set"* %3, i32 0, i32 0
  %5 = load %"class.std::set"** %2, align 8
  %6 = getelementptr inbounds %"class.std::set"* %5, i32 0, i32 0
  call void @_ZNSt8_Rb_treeIiiSt9_IdentityIiESt4lessIiESaIiEEC2ERKS5_(%"class.std::_Rb_tree"* %4, %"class.std::_Rb_tree"* %6)
  ret void
}

; Function Attrs: uwtable
define linkonce_odr i64 @_ZNSt3setIiSt4lessIiESaIiEE5eraseERKi(%"class.std::set"* %this, i32* %__x) #2 align 2 {
  %1 = alloca %"class.std::set"*, align 8
  %2 = alloca i32*, align 8
  store %"class.std::set"* %this, %"class.std::set"** %1, align 8
  store i32* %__x, i32** %2, align 8
  %3 = load %"class.std::set"** %1
  %4 = getelementptr inbounds %"class.std::set"* %3, i32 0, i32 0
  %5 = load i32** %2, align 8
  %6 = call i64 @_ZNSt8_Rb_treeIiiSt9_IdentityIiESt4lessIiESaIiEE5eraseERKi(%"class.std::_Rb_tree"* %4, i32* %5)
  ret i64 %6
}

; Function Attrs: uwtable
define void @_ZN5graph6cal_dfEv(%class.graph* %this) #2 align 2 {
  %1 = alloca %class.graph*, align 8
  %i = alloca i32, align 4
  %j = alloca i32, align 4
  %size = alloca i32, align 4
  %temp = alloca i32, align 4
  %2 = alloca %"struct.std::pair", align 8
  store %class.graph* %this, %class.graph** %1, align 8
  %3 = load %class.graph** %1
  %4 = getelementptr inbounds %class.graph* %3, i32 0, i32 0
  %5 = call i64 @_ZNKSt6vectorIS_IiSaIiEESaIS1_EE4sizeEv(%"class.std::vector"* %4)
  %6 = trunc i64 %5 to i32
  store i32 %6, i32* %size, align 4
  store i32 0, i32* %i, align 4
  br label %7

; <label>:7                                       ; preds = %71, %0
  %8 = load i32* %i, align 4
  %9 = load i32* %size, align 4
  %10 = icmp slt i32 %8, %9
  br i1 %10, label %11, label %74

; <label>:11                                      ; preds = %7
  %12 = getelementptr inbounds %class.graph* %3, i32 0, i32 0
  %13 = load i32* %i, align 4
  %14 = sext i32 %13 to i64
  %15 = call %"class.std::vector.0"* @_ZNSt6vectorIS_IiSaIiEESaIS1_EEixEm(%"class.std::vector"* %12, i64 %14)
  %16 = call i64 @_ZNKSt6vectorIiSaIiEE4sizeEv(%"class.std::vector.0"* %15)
  %17 = icmp ugt i64 %16, 1
  br i1 %17, label %18, label %70

; <label>:18                                      ; preds = %11
  store i32 0, i32* %j, align 4
  br label %19

; <label>:19                                      ; preds = %66, %18
  %20 = load i32* %j, align 4
  %21 = sext i32 %20 to i64
  %22 = getelementptr inbounds %class.graph* %3, i32 0, i32 0
  %23 = load i32* %i, align 4
  %24 = sext i32 %23 to i64
  %25 = call %"class.std::vector.0"* @_ZNSt6vectorIS_IiSaIiEESaIS1_EEixEm(%"class.std::vector"* %22, i64 %24)
  %26 = call i64 @_ZNKSt6vectorIiSaIiEE4sizeEv(%"class.std::vector.0"* %25)
  %27 = icmp ult i64 %21, %26
  br i1 %27, label %28, label %69

; <label>:28                                      ; preds = %19
  %29 = getelementptr inbounds %class.graph* %3, i32 0, i32 0
  %30 = load i32* %i, align 4
  %31 = sext i32 %30 to i64
  %32 = call %"class.std::vector.0"* @_ZNSt6vectorIS_IiSaIiEESaIS1_EEixEm(%"class.std::vector"* %29, i64 %31)
  %33 = load i32* %j, align 4
  %34 = sext i32 %33 to i64
  %35 = call i32* @_ZNSt6vectorIiSaIiEEixEm(%"class.std::vector.0"* %32, i64 %34)
  %36 = load i32* %35
  store i32 %36, i32* %temp, align 4
  br label %37

; <label>:37                                      ; preds = %64, %28
  %38 = load i32* %temp, align 4
  %39 = getelementptr inbounds %class.graph* %3, i32 0, i32 4
  %40 = load i32* %i, align 4
  %41 = sext i32 %40 to i64
  %42 = call i32* @_ZNSt6vectorIiSaIiEEixEm(%"class.std::vector.0"* %39, i64 %41)
  %43 = load i32* %42
  %44 = icmp ne i32 %38, %43
  br i1 %44, label %45, label %65

; <label>:45                                      ; preds = %37
  %46 = getelementptr inbounds %class.graph* %3, i32 0, i32 5
  %47 = load i32* %temp, align 4
  %48 = sext i32 %47 to i64
  %49 = call %"class.std::set"* @_ZNSt6vectorISt3setIiSt4lessIiESaIiEESaIS4_EEixEm(%"class.std::vector.9"* %46, i64 %48)
  %50 = call { %"struct.std::_Rb_tree_node_base"*, i8 } @_ZNSt3setIiSt4lessIiESaIiEE6insertERKi(%"class.std::set"* %49, i32* %i)
  %51 = bitcast %"struct.std::pair"* %2 to { %"struct.std::_Rb_tree_node_base"*, i8 }*
  %52 = getelementptr { %"struct.std::_Rb_tree_node_base"*, i8 }* %51, i32 0, i32 0
  %53 = extractvalue { %"struct.std::_Rb_tree_node_base"*, i8 } %50, 0
  store %"struct.std::_Rb_tree_node_base"* %53, %"struct.std::_Rb_tree_node_base"** %52, align 1
  %54 = getelementptr { %"struct.std::_Rb_tree_node_base"*, i8 }* %51, i32 0, i32 1
  %55 = extractvalue { %"struct.std::_Rb_tree_node_base"*, i8 } %50, 1
  store i8 %55, i8* %54, align 1
  %56 = getelementptr inbounds %class.graph* %3, i32 0, i32 4
  %57 = load i32* %temp, align 4
  %58 = sext i32 %57 to i64
  %59 = call i32* @_ZNSt6vectorIiSaIiEEixEm(%"class.std::vector.0"* %56, i64 %58)
  %60 = load i32* %59
  store i32 %60, i32* %temp, align 4
  %61 = load i32* %temp, align 4
  %62 = icmp eq i32 %61, -1
  br i1 %62, label %63, label %64

; <label>:63                                      ; preds = %45
  br label %65

; <label>:64                                      ; preds = %45
  br label %37

; <label>:65                                      ; preds = %63, %37
  br label %66

; <label>:66                                      ; preds = %65
  %67 = load i32* %j, align 4
  %68 = add nsw i32 %67, 1
  store i32 %68, i32* %j, align 4
  br label %19

; <label>:69                                      ; preds = %19
  br label %70

; <label>:70                                      ; preds = %69, %11
  br label %71

; <label>:71                                      ; preds = %70
  %72 = load i32* %i, align 4
  %73 = add nsw i32 %72, 1
  store i32 %73, i32* %i, align 4
  br label %7

; <label>:74                                      ; preds = %7
  %75 = call %"class.std::basic_ostream"* @_ZStlsISt11char_traitsIcEERSt13basic_ostreamIcT_ES5_PKc(%"class.std::basic_ostream"* @_ZSt4cout, i8* getelementptr inbounds ([5 x i8]* @.str6, i32 0, i32 0))
  call void @_ZN5graph8print_dfEv(%class.graph* %3)
  ret void
}

; Function Attrs: uwtable
define void @_ZN5graph8print_dfEv(%class.graph* %this) #2 align 2 {
  %1 = alloca %class.graph*, align 8
  %i = alloca i32, align 4
  %size = alloca i32, align 4
  %2 = alloca %"struct.std::_Rb_tree_const_iterator", align 8
  %3 = alloca %"struct.std::_Rb_tree_const_iterator", align 8
  store %class.graph* %this, %class.graph** %1, align 8
  %4 = load %class.graph** %1
  %5 = getelementptr inbounds %class.graph* %4, i32 0, i32 5
  %6 = call i64 @_ZNKSt6vectorISt3setIiSt4lessIiESaIiEESaIS4_EE4sizeEv(%"class.std::vector.9"* %5)
  %7 = trunc i64 %6 to i32
  store i32 %7, i32* %size, align 4
  store i32 0, i32* %i, align 4
  br label %8

; <label>:8                                       ; preds = %33, %0
  %9 = load i32* %i, align 4
  %10 = load i32* %size, align 4
  %11 = icmp slt i32 %9, %10
  br i1 %11, label %12, label %36

; <label>:12                                      ; preds = %8
  %13 = call %"class.std::basic_ostream"* @_ZStlsISt11char_traitsIcEERSt13basic_ostreamIcT_ES5_PKc(%"class.std::basic_ostream"* @_ZSt4cout, i8* getelementptr inbounds ([2 x i8]* @.str1, i32 0, i32 0))
  %14 = load i32* %i, align 4
  %15 = call %"class.std::basic_ostream"* @_ZNSolsEi(%"class.std::basic_ostream"* %13, i32 %14)
  %16 = call %"class.std::basic_ostream"* @_ZStlsISt11char_traitsIcEERSt13basic_ostreamIcT_ES5_PKc(%"class.std::basic_ostream"* %15, i8* getelementptr inbounds ([4 x i8]* @.str2, i32 0, i32 0))
  %17 = getelementptr inbounds %class.graph* %4, i32 0, i32 5
  %18 = load i32* %i, align 4
  %19 = sext i32 %18 to i64
  %20 = call %"class.std::set"* @_ZNSt6vectorISt3setIiSt4lessIiESaIiEESaIS4_EEixEm(%"class.std::vector.9"* %17, i64 %19)
  %21 = call %"struct.std::_Rb_tree_node_base"* @_ZNKSt3setIiSt4lessIiESaIiEE5beginEv(%"class.std::set"* %20)
  %22 = getelementptr %"struct.std::_Rb_tree_const_iterator"* %2, i32 0, i32 0
  store %"struct.std::_Rb_tree_node_base"* %21, %"struct.std::_Rb_tree_node_base"** %22
  %23 = getelementptr inbounds %class.graph* %4, i32 0, i32 5
  %24 = load i32* %i, align 4
  %25 = sext i32 %24 to i64
  %26 = call %"class.std::set"* @_ZNSt6vectorISt3setIiSt4lessIiESaIiEESaIS4_EEixEm(%"class.std::vector.9"* %23, i64 %25)
  %27 = call %"struct.std::_Rb_tree_node_base"* @_ZNKSt3setIiSt4lessIiESaIiEE3endEv(%"class.std::set"* %26)
  %28 = getelementptr %"struct.std::_Rb_tree_const_iterator"* %3, i32 0, i32 0
  store %"struct.std::_Rb_tree_node_base"* %27, %"struct.std::_Rb_tree_node_base"** %28
  %29 = getelementptr %"struct.std::_Rb_tree_const_iterator"* %2, i32 0, i32 0
  %30 = load %"struct.std::_Rb_tree_node_base"** %29
  %31 = getelementptr %"struct.std::_Rb_tree_const_iterator"* %3, i32 0, i32 0
  %32 = load %"struct.std::_Rb_tree_node_base"** %31
  call void @_Z9print_setSt23_Rb_tree_const_iteratorIiES0_(%"struct.std::_Rb_tree_node_base"* %30, %"struct.std::_Rb_tree_node_base"* %32)
  br label %33

; <label>:33                                      ; preds = %12
  %34 = load i32* %i, align 4
  %35 = add nsw i32 %34, 1
  store i32 %35, i32* %i, align 4
  br label %8

; <label>:36                                      ; preds = %8
  ret void
}

; Function Attrs: uwtable
define i32 @main() #2 {
  %1 = alloca i32, align 4
  %i = alloca i32, align 4
  %n = alloca i32, align 4
  %temp = alloca i32, align 4
  %nodei = alloca i32, align 4
  %src = alloca i32, align 4
  %g1 = alloca %class.graph, align 8
  %2 = alloca i8*
  %3 = alloca i32
  %4 = alloca i32
  store i32 0, i32* %1
  store i32 1, i32* %src, align 4
  %5 = load %struct._IO_FILE** @stdin, align 8
  %6 = call %struct._IO_FILE* @freopen(i8* getelementptr inbounds ([11 x i8]* @.str7, i32 0, i32 0), i8* getelementptr inbounds ([2 x i8]* @.str8, i32 0, i32 0), %struct._IO_FILE* %5)
  %7 = call %"class.std::basic_istream"* @_ZNSirsERi(%"class.std::basic_istream"* @_ZSt3cin, i32* %n)
  %8 = load i32* %n, align 4
  call void @_ZN5graphC1Ei(%class.graph* %g1, i32 %8)
  store i32 0, i32* %i, align 4
  br label %9

; <label>:9                                       ; preds = %33, %0
  %10 = load i32* %i, align 4
  %11 = add nsw i32 %10, 1
  store i32 %11, i32* %i, align 4
  %12 = load i32* %n, align 4
  %13 = icmp slt i32 %10, %12
  br i1 %13, label %14, label %34

; <label>:14                                      ; preds = %9
  %15 = invoke %"class.std::basic_istream"* @_ZNSirsERi(%"class.std::basic_istream"* @_ZSt3cin, i32* %nodei)
          to label %16 unwind label %24

; <label>:16                                      ; preds = %14
  br label %17

; <label>:17                                      ; preds = %32, %16
  br label %18

; <label>:18                                      ; preds = %17
  %19 = invoke %"class.std::basic_istream"* @_ZNSirsERi(%"class.std::basic_istream"* @_ZSt3cin, i32* %temp)
          to label %20 unwind label %24

; <label>:20                                      ; preds = %18
  %21 = load i32* %temp, align 4
  %22 = icmp eq i32 %21, 0
  br i1 %22, label %23, label %28

; <label>:23                                      ; preds = %20
  br label %33

; <label>:24                                      ; preds = %47, %46, %45, %44, %43, %41, %37, %34, %28, %18, %14
  %25 = landingpad { i8*, i32 } personality i8* bitcast (i32 (...)* @__gxx_personality_v0 to i8*)
          cleanup
  %26 = extractvalue { i8*, i32 } %25, 0
  store i8* %26, i8** %2
  %27 = extractvalue { i8*, i32 } %25, 1
  store i32 %27, i32* %3
  invoke void @_ZN5graphD2Ev(%class.graph* %g1)
          to label %50 unwind label %56

; <label>:28                                      ; preds = %20
  %29 = load i32* %temp, align 4
  %30 = load i32* %nodei, align 4
  invoke void @_ZN5graph11create_edgeEii(%class.graph* %g1, i32 %29, i32 %30)
          to label %31 unwind label %24

; <label>:31                                      ; preds = %28
  br label %32

; <label>:32                                      ; preds = %31
  br label %17

; <label>:33                                      ; preds = %23
  br label %9

; <label>:34                                      ; preds = %9
  %35 = load i32* %src, align 4
  %36 = load i32* %n, align 4
  invoke void @_ZN5graph14find_dominatorEii(%class.graph* %g1, i32 %35, i32 %36)
          to label %37 unwind label %24

; <label>:37                                      ; preds = %34
  %38 = getelementptr inbounds %class.graph* %g1, i32 0, i32 6
  %39 = load i32* %38, align 4
  %40 = invoke %"class.std::basic_ostream"* @_ZNSolsEi(%"class.std::basic_ostream"* @_ZSt4cout, i32 %39)
          to label %41 unwind label %24

; <label>:41                                      ; preds = %37
  %42 = invoke %"class.std::basic_ostream"* @_ZStlsISt11char_traitsIcEERSt13basic_ostreamIcT_ES5_PKc(%"class.std::basic_ostream"* %40, i8* getelementptr inbounds ([2 x i8]* @.str1, i32 0, i32 0))
          to label %43 unwind label %24

; <label>:43                                      ; preds = %41
  invoke void @_ZN5graph15print_dominatorEv(%class.graph* %g1)
          to label %44 unwind label %24

; <label>:44                                      ; preds = %43
  invoke void @_ZN5graph8cal_idomEv(%class.graph* %g1)
          to label %45 unwind label %24

; <label>:45                                      ; preds = %44
  invoke void @_ZN5graph6cal_dfEv(%class.graph* %g1)
          to label %46 unwind label %24

; <label>:46                                      ; preds = %45
  invoke void @_ZN5graph12natural_loopEv(%class.graph* %g1)
          to label %47 unwind label %24

; <label>:47                                      ; preds = %46
  invoke void @_ZN5graph15print_all_loopsEv(%class.graph* %g1)
          to label %48 unwind label %24

; <label>:48                                      ; preds = %47
  store i32 0, i32* %1
  store i32 1, i32* %4
  call void @_ZN5graphD2Ev(%class.graph* %g1)
  %49 = load i32* %1
  ret i32 %49

; <label>:50                                      ; preds = %24
  br label %51

; <label>:51                                      ; preds = %50
  %52 = load i8** %2
  %53 = load i32* %3
  %54 = insertvalue { i8*, i32 } undef, i8* %52, 0
  %55 = insertvalue { i8*, i32 } %54, i32 %53, 1
  resume { i8*, i32 } %55

; <label>:56                                      ; preds = %24
  %57 = landingpad { i8*, i32 } personality i8* bitcast (i32 (...)* @__gxx_personality_v0 to i8*)
          catch i8* null
  %58 = extractvalue { i8*, i32 } %57, 0
  call void @__clang_call_terminate(i8* %58) #12
  unreachable
}

declare %struct._IO_FILE* @freopen(i8*, i8*, %struct._IO_FILE*) #0

declare %"class.std::basic_istream"* @_ZNSirsERi(%"class.std::basic_istream"*, i32*) #0

; Function Attrs: inlinehint uwtable
define linkonce_odr void @_ZN5graphD2Ev(%class.graph* %this) unnamed_addr #3 align 2 {
  %1 = alloca %class.graph*, align 8
  %2 = alloca i8*
  %3 = alloca i32
  store %class.graph* %this, %class.graph** %1, align 8
  %4 = load %class.graph** %1
  %5 = getelementptr inbounds %class.graph* %4, i32 0, i32 5
  invoke void @_ZNSt6vectorISt3setIiSt4lessIiESaIiEESaIS4_EED2Ev(%"class.std::vector.9"* %5)
          to label %6 unwind label %16

; <label>:6                                       ; preds = %0
  %7 = getelementptr inbounds %class.graph* %4, i32 0, i32 4
  invoke void @_ZNSt6vectorIiSaIiEED2Ev(%"class.std::vector.0"* %7)
          to label %8 unwind label %21

; <label>:8                                       ; preds = %6
  %9 = getelementptr inbounds %class.graph* %4, i32 0, i32 3
  invoke void @_ZNSt6vectorISt3setIiSt4lessIiESaIiEESaIS4_EED2Ev(%"class.std::vector.9"* %9)
          to label %10 unwind label %26

; <label>:10                                      ; preds = %8
  %11 = getelementptr inbounds %class.graph* %4, i32 0, i32 2
  invoke void @_ZNSt6vectorISt3setIiSt4lessIiESaIiEESaIS4_EED2Ev(%"class.std::vector.9"* %11)
          to label %12 unwind label %33

; <label>:12                                      ; preds = %10
  %13 = getelementptr inbounds %class.graph* %4, i32 0, i32 1
  invoke void @_ZNSt6vectorIbSaIbEED2Ev(%"class.std::vector.5"* %13)
          to label %14 unwind label %40

; <label>:14                                      ; preds = %12
  %15 = getelementptr inbounds %class.graph* %4, i32 0, i32 0
  call void @_ZNSt6vectorIS_IiSaIiEESaIS1_EED2Ev(%"class.std::vector"* %15)
  ret void

; <label>:16                                      ; preds = %0
  %17 = landingpad { i8*, i32 } personality i8* bitcast (i32 (...)* @__gxx_personality_v0 to i8*)
          cleanup
  %18 = extractvalue { i8*, i32 } %17, 0
  store i8* %18, i8** %2
  %19 = extractvalue { i8*, i32 } %17, 1
  store i32 %19, i32* %3
  %20 = getelementptr inbounds %class.graph* %4, i32 0, i32 4
  invoke void @_ZNSt6vectorIiSaIiEED2Ev(%"class.std::vector.0"* %20)
          to label %25 unwind label %55

; <label>:21                                      ; preds = %6
  %22 = landingpad { i8*, i32 } personality i8* bitcast (i32 (...)* @__gxx_personality_v0 to i8*)
          cleanup
  %23 = extractvalue { i8*, i32 } %22, 0
  store i8* %23, i8** %2
  %24 = extractvalue { i8*, i32 } %22, 1
  store i32 %24, i32* %3
  br label %30

; <label>:25                                      ; preds = %16
  br label %30

; <label>:26                                      ; preds = %8
  %27 = landingpad { i8*, i32 } personality i8* bitcast (i32 (...)* @__gxx_personality_v0 to i8*)
          cleanup
  %28 = extractvalue { i8*, i32 } %27, 0
  store i8* %28, i8** %2
  %29 = extractvalue { i8*, i32 } %27, 1
  store i32 %29, i32* %3
  br label %37

; <label>:30                                      ; preds = %25, %21
  %31 = getelementptr inbounds %class.graph* %4, i32 0, i32 3
  invoke void @_ZNSt6vectorISt3setIiSt4lessIiESaIiEESaIS4_EED2Ev(%"class.std::vector.9"* %31)
          to label %32 unwind label %55

; <label>:32                                      ; preds = %30
  br label %37

; <label>:33                                      ; preds = %10
  %34 = landingpad { i8*, i32 } personality i8* bitcast (i32 (...)* @__gxx_personality_v0 to i8*)
          cleanup
  %35 = extractvalue { i8*, i32 } %34, 0
  store i8* %35, i8** %2
  %36 = extractvalue { i8*, i32 } %34, 1
  store i32 %36, i32* %3
  br label %44

; <label>:37                                      ; preds = %32, %26
  %38 = getelementptr inbounds %class.graph* %4, i32 0, i32 2
  invoke void @_ZNSt6vectorISt3setIiSt4lessIiESaIiEESaIS4_EED2Ev(%"class.std::vector.9"* %38)
          to label %39 unwind label %55

; <label>:39                                      ; preds = %37
  br label %44

; <label>:40                                      ; preds = %12
  %41 = landingpad { i8*, i32 } personality i8* bitcast (i32 (...)* @__gxx_personality_v0 to i8*)
          cleanup
  %42 = extractvalue { i8*, i32 } %41, 0
  store i8* %42, i8** %2
  %43 = extractvalue { i8*, i32 } %41, 1
  store i32 %43, i32* %3
  br label %47

; <label>:44                                      ; preds = %39, %33
  %45 = getelementptr inbounds %class.graph* %4, i32 0, i32 1
  invoke void @_ZNSt6vectorIbSaIbEED2Ev(%"class.std::vector.5"* %45)
          to label %46 unwind label %55

; <label>:46                                      ; preds = %44
  br label %47

; <label>:47                                      ; preds = %46, %40
  %48 = getelementptr inbounds %class.graph* %4, i32 0, i32 0
  invoke void @_ZNSt6vectorIS_IiSaIiEESaIS1_EED2Ev(%"class.std::vector"* %48)
          to label %49 unwind label %55

; <label>:49                                      ; preds = %47
  br label %50

; <label>:50                                      ; preds = %49
  %51 = load i8** %2
  %52 = load i32* %3
  %53 = insertvalue { i8*, i32 } undef, i8* %51, 0
  %54 = insertvalue { i8*, i32 } %53, i32 %52, 1
  resume { i8*, i32 } %54

; <label>:55                                      ; preds = %47, %44, %37, %30, %16
  %56 = landingpad { i8*, i32 } personality i8* bitcast (i32 (...)* @__gxx_personality_v0 to i8*)
          catch i8* null
  %57 = extractvalue { i8*, i32 } %56, 0
  call void @__clang_call_terminate(i8* %57) #12
  unreachable
}

; Function Attrs: uwtable
define linkonce_odr i64 @_ZNSt8_Rb_treeIiiSt9_IdentityIiESt4lessIiESaIiEE5eraseERKi(%"class.std::_Rb_tree"* %this, i32* %__x) #2 align 2 {
  %1 = alloca %"class.std::_Rb_tree"*, align 8
  %2 = alloca i32*, align 8
  %__p = alloca %"struct.std::pair.21", align 8
  %__old_size = alloca i64, align 8
  %3 = alloca %"struct.std::_Rb_tree_iterator", align 8
  %4 = alloca %"struct.std::_Rb_tree_iterator", align 8
  store %"class.std::_Rb_tree"* %this, %"class.std::_Rb_tree"** %1, align 8
  store i32* %__x, i32** %2, align 8
  %5 = load %"class.std::_Rb_tree"** %1
  %6 = load i32** %2, align 8
  %7 = call { %"struct.std::_Rb_tree_node_base"*, %"struct.std::_Rb_tree_node_base"* } @_ZNSt8_Rb_treeIiiSt9_IdentityIiESt4lessIiESaIiEE11equal_rangeERKi(%"class.std::_Rb_tree"* %5, i32* %6)
  %8 = bitcast %"struct.std::pair.21"* %__p to { %"struct.std::_Rb_tree_node_base"*, %"struct.std::_Rb_tree_node_base"* }*
  %9 = getelementptr { %"struct.std::_Rb_tree_node_base"*, %"struct.std::_Rb_tree_node_base"* }* %8, i32 0, i32 0
  %10 = extractvalue { %"struct.std::_Rb_tree_node_base"*, %"struct.std::_Rb_tree_node_base"* } %7, 0
  store %"struct.std::_Rb_tree_node_base"* %10, %"struct.std::_Rb_tree_node_base"** %9, align 1
  %11 = getelementptr { %"struct.std::_Rb_tree_node_base"*, %"struct.std::_Rb_tree_node_base"* }* %8, i32 0, i32 1
  %12 = extractvalue { %"struct.std::_Rb_tree_node_base"*, %"struct.std::_Rb_tree_node_base"* } %7, 1
  store %"struct.std::_Rb_tree_node_base"* %12, %"struct.std::_Rb_tree_node_base"** %11, align 1
  %13 = call i64 @_ZNKSt8_Rb_treeIiiSt9_IdentityIiESt4lessIiESaIiEE4sizeEv(%"class.std::_Rb_tree"* %5)
  store i64 %13, i64* %__old_size, align 8
  %14 = getelementptr inbounds %"struct.std::pair.21"* %__p, i32 0, i32 0
  %15 = bitcast %"struct.std::_Rb_tree_iterator"* %3 to i8*
  %16 = bitcast %"struct.std::_Rb_tree_iterator"* %14 to i8*
  call void @llvm.memcpy.p0i8.p0i8.i64(i8* %15, i8* %16, i64 8, i32 8, i1 false)
  %17 = getelementptr inbounds %"struct.std::pair.21"* %__p, i32 0, i32 1
  %18 = bitcast %"struct.std::_Rb_tree_iterator"* %4 to i8*
  %19 = bitcast %"struct.std::_Rb_tree_iterator"* %17 to i8*
  call void @llvm.memcpy.p0i8.p0i8.i64(i8* %18, i8* %19, i64 8, i32 8, i1 false)
  %20 = getelementptr %"struct.std::_Rb_tree_iterator"* %3, i32 0, i32 0
  %21 = load %"struct.std::_Rb_tree_node_base"** %20
  %22 = getelementptr %"struct.std::_Rb_tree_iterator"* %4, i32 0, i32 0
  %23 = load %"struct.std::_Rb_tree_node_base"** %22
  call void @_ZNSt8_Rb_treeIiiSt9_IdentityIiESt4lessIiESaIiEE5eraseESt17_Rb_tree_iteratorIiES7_(%"class.std::_Rb_tree"* %5, %"struct.std::_Rb_tree_node_base"* %21, %"struct.std::_Rb_tree_node_base"* %23)
  %24 = load i64* %__old_size, align 8
  %25 = call i64 @_ZNKSt8_Rb_treeIiiSt9_IdentityIiESt4lessIiESaIiEE4sizeEv(%"class.std::_Rb_tree"* %5)
  %26 = sub i64 %24, %25
  ret i64 %26
}

; Function Attrs: uwtable
define linkonce_odr { %"struct.std::_Rb_tree_node_base"*, %"struct.std::_Rb_tree_node_base"* } @_ZNSt8_Rb_treeIiiSt9_IdentityIiESt4lessIiESaIiEE11equal_rangeERKi(%"class.std::_Rb_tree"* %this, i32* %__k) #2 align 2 {
  %1 = alloca %"struct.std::pair.21", align 8
  %2 = alloca %"class.std::_Rb_tree"*, align 8
  %3 = alloca i32*, align 8
  %__x = alloca %"struct.std::_Rb_tree_node"*, align 8
  %__y = alloca %"struct.std::_Rb_tree_node"*, align 8
  %__xu = alloca %"struct.std::_Rb_tree_node"*, align 8
  %__yu = alloca %"struct.std::_Rb_tree_node"*, align 8
  %4 = alloca %"struct.std::_Rb_tree_iterator", align 8
  %5 = alloca %"struct.std::_Rb_tree_iterator", align 8
  %6 = alloca %"struct.std::_Rb_tree_iterator", align 8
  %7 = alloca %"struct.std::_Rb_tree_iterator", align 8
  store %"class.std::_Rb_tree"* %this, %"class.std::_Rb_tree"** %2, align 8
  store i32* %__k, i32** %3, align 8
  %8 = load %"class.std::_Rb_tree"** %2
  %9 = call %"struct.std::_Rb_tree_node"* @_ZNSt8_Rb_treeIiiSt9_IdentityIiESt4lessIiESaIiEE8_M_beginEv(%"class.std::_Rb_tree"* %8)
  store %"struct.std::_Rb_tree_node"* %9, %"struct.std::_Rb_tree_node"** %__x, align 8
  %10 = call %"struct.std::_Rb_tree_node"* @_ZNSt8_Rb_treeIiiSt9_IdentityIiESt4lessIiESaIiEE6_M_endEv(%"class.std::_Rb_tree"* %8)
  store %"struct.std::_Rb_tree_node"* %10, %"struct.std::_Rb_tree_node"** %__y, align 8
  br label %11

; <label>:11                                      ; preds = %58, %0
  %12 = load %"struct.std::_Rb_tree_node"** %__x, align 8
  %13 = icmp ne %"struct.std::_Rb_tree_node"* %12, null
  br i1 %13, label %14, label %59

; <label>:14                                      ; preds = %11
  %15 = getelementptr inbounds %"class.std::_Rb_tree"* %8, i32 0, i32 0
  %16 = getelementptr inbounds %"struct.std::_Rb_tree<int, int, std::_Identity<int>, std::less<int>, std::allocator<int> >::_Rb_tree_impl"* %15, i32 0, i32 0
  %17 = load %"struct.std::_Rb_tree_node"** %__x, align 8
  %18 = call i32* @_ZNSt8_Rb_treeIiiSt9_IdentityIiESt4lessIiESaIiEE6_S_keyEPKSt13_Rb_tree_nodeIiE(%"struct.std::_Rb_tree_node"* %17)
  %19 = load i32** %3, align 8
  %20 = call zeroext i1 @_ZNKSt4lessIiEclERKiS2_(%"struct.std::less"* %16, i32* %18, i32* %19)
  br i1 %20, label %21, label %25

; <label>:21                                      ; preds = %14
  %22 = load %"struct.std::_Rb_tree_node"** %__x, align 8
  %23 = bitcast %"struct.std::_Rb_tree_node"* %22 to %"struct.std::_Rb_tree_node_base"*
  %24 = call %"struct.std::_Rb_tree_node"* @_ZNSt8_Rb_treeIiiSt9_IdentityIiESt4lessIiESaIiEE8_S_rightEPSt18_Rb_tree_node_base(%"struct.std::_Rb_tree_node_base"* %23)
  store %"struct.std::_Rb_tree_node"* %24, %"struct.std::_Rb_tree_node"** %__x, align 8
  br label %58

; <label>:25                                      ; preds = %14
  %26 = getelementptr inbounds %"class.std::_Rb_tree"* %8, i32 0, i32 0
  %27 = getelementptr inbounds %"struct.std::_Rb_tree<int, int, std::_Identity<int>, std::less<int>, std::allocator<int> >::_Rb_tree_impl"* %26, i32 0, i32 0
  %28 = load i32** %3, align 8
  %29 = load %"struct.std::_Rb_tree_node"** %__x, align 8
  %30 = call i32* @_ZNSt8_Rb_treeIiiSt9_IdentityIiESt4lessIiESaIiEE6_S_keyEPKSt13_Rb_tree_nodeIiE(%"struct.std::_Rb_tree_node"* %29)
  %31 = call zeroext i1 @_ZNKSt4lessIiEclERKiS2_(%"struct.std::less"* %27, i32* %28, i32* %30)
  br i1 %31, label %32, label %37

; <label>:32                                      ; preds = %25
  %33 = load %"struct.std::_Rb_tree_node"** %__x, align 8
  store %"struct.std::_Rb_tree_node"* %33, %"struct.std::_Rb_tree_node"** %__y, align 8
  %34 = load %"struct.std::_Rb_tree_node"** %__x, align 8
  %35 = bitcast %"struct.std::_Rb_tree_node"* %34 to %"struct.std::_Rb_tree_node_base"*
  %36 = call %"struct.std::_Rb_tree_node"* @_ZNSt8_Rb_treeIiiSt9_IdentityIiESt4lessIiESaIiEE7_S_leftEPSt18_Rb_tree_node_base(%"struct.std::_Rb_tree_node_base"* %35)
  store %"struct.std::_Rb_tree_node"* %36, %"struct.std::_Rb_tree_node"** %__x, align 8
  br label %57

; <label>:37                                      ; preds = %25
  %38 = load %"struct.std::_Rb_tree_node"** %__x, align 8
  store %"struct.std::_Rb_tree_node"* %38, %"struct.std::_Rb_tree_node"** %__xu, align 8
  %39 = load %"struct.std::_Rb_tree_node"** %__y, align 8
  store %"struct.std::_Rb_tree_node"* %39, %"struct.std::_Rb_tree_node"** %__yu, align 8
  %40 = load %"struct.std::_Rb_tree_node"** %__x, align 8
  store %"struct.std::_Rb_tree_node"* %40, %"struct.std::_Rb_tree_node"** %__y, align 8
  %41 = load %"struct.std::_Rb_tree_node"** %__x, align 8
  %42 = bitcast %"struct.std::_Rb_tree_node"* %41 to %"struct.std::_Rb_tree_node_base"*
  %43 = call %"struct.std::_Rb_tree_node"* @_ZNSt8_Rb_treeIiiSt9_IdentityIiESt4lessIiESaIiEE7_S_leftEPSt18_Rb_tree_node_base(%"struct.std::_Rb_tree_node_base"* %42)
  store %"struct.std::_Rb_tree_node"* %43, %"struct.std::_Rb_tree_node"** %__x, align 8
  %44 = load %"struct.std::_Rb_tree_node"** %__xu, align 8
  %45 = bitcast %"struct.std::_Rb_tree_node"* %44 to %"struct.std::_Rb_tree_node_base"*
  %46 = call %"struct.std::_Rb_tree_node"* @_ZNSt8_Rb_treeIiiSt9_IdentityIiESt4lessIiESaIiEE8_S_rightEPSt18_Rb_tree_node_base(%"struct.std::_Rb_tree_node_base"* %45)
  store %"struct.std::_Rb_tree_node"* %46, %"struct.std::_Rb_tree_node"** %__xu, align 8
  %47 = load %"struct.std::_Rb_tree_node"** %__x, align 8
  %48 = load %"struct.std::_Rb_tree_node"** %__y, align 8
  %49 = load i32** %3, align 8
  %50 = call %"struct.std::_Rb_tree_node_base"* @_ZNSt8_Rb_treeIiiSt9_IdentityIiESt4lessIiESaIiEE14_M_lower_boundEPSt13_Rb_tree_nodeIiES8_RKi(%"class.std::_Rb_tree"* %8, %"struct.std::_Rb_tree_node"* %47, %"struct.std::_Rb_tree_node"* %48, i32* %49)
  %51 = getelementptr %"struct.std::_Rb_tree_iterator"* %4, i32 0, i32 0
  store %"struct.std::_Rb_tree_node_base"* %50, %"struct.std::_Rb_tree_node_base"** %51
  %52 = load %"struct.std::_Rb_tree_node"** %__xu, align 8
  %53 = load %"struct.std::_Rb_tree_node"** %__yu, align 8
  %54 = load i32** %3, align 8
  %55 = call %"struct.std::_Rb_tree_node_base"* @_ZNSt8_Rb_treeIiiSt9_IdentityIiESt4lessIiESaIiEE14_M_upper_boundEPSt13_Rb_tree_nodeIiES8_RKi(%"class.std::_Rb_tree"* %8, %"struct.std::_Rb_tree_node"* %52, %"struct.std::_Rb_tree_node"* %53, i32* %54)
  %56 = getelementptr %"struct.std::_Rb_tree_iterator"* %5, i32 0, i32 0
  store %"struct.std::_Rb_tree_node_base"* %55, %"struct.std::_Rb_tree_node_base"** %56
  call void @_ZNSt4pairISt17_Rb_tree_iteratorIiES1_EC2ERKS1_S4_(%"struct.std::pair.21"* %1, %"struct.std::_Rb_tree_iterator"* %4, %"struct.std::_Rb_tree_iterator"* %5)
  br label %62

; <label>:57                                      ; preds = %32
  br label %58

; <label>:58                                      ; preds = %57, %21
  br label %11

; <label>:59                                      ; preds = %11
  %60 = load %"struct.std::_Rb_tree_node"** %__y, align 8
  call void @_ZNSt17_Rb_tree_iteratorIiEC2EPSt13_Rb_tree_nodeIiE(%"struct.std::_Rb_tree_iterator"* %6, %"struct.std::_Rb_tree_node"* %60)
  %61 = load %"struct.std::_Rb_tree_node"** %__y, align 8
  call void @_ZNSt17_Rb_tree_iteratorIiEC2EPSt13_Rb_tree_nodeIiE(%"struct.std::_Rb_tree_iterator"* %7, %"struct.std::_Rb_tree_node"* %61)
  call void @_ZNSt4pairISt17_Rb_tree_iteratorIiES1_EC2ERKS1_S4_(%"struct.std::pair.21"* %1, %"struct.std::_Rb_tree_iterator"* %6, %"struct.std::_Rb_tree_iterator"* %7)
  br label %62

; <label>:62                                      ; preds = %59, %37
  %63 = bitcast %"struct.std::pair.21"* %1 to { %"struct.std::_Rb_tree_node_base"*, %"struct.std::_Rb_tree_node_base"* }*
  %64 = load { %"struct.std::_Rb_tree_node_base"*, %"struct.std::_Rb_tree_node_base"* }* %63, align 1
  ret { %"struct.std::_Rb_tree_node_base"*, %"struct.std::_Rb_tree_node_base"* } %64
}

; Function Attrs: nounwind uwtable
define linkonce_odr i64 @_ZNKSt8_Rb_treeIiiSt9_IdentityIiESt4lessIiESaIiEE4sizeEv(%"class.std::_Rb_tree"* %this) #5 align 2 {
  %1 = alloca %"class.std::_Rb_tree"*, align 8
  store %"class.std::_Rb_tree"* %this, %"class.std::_Rb_tree"** %1, align 8
  %2 = load %"class.std::_Rb_tree"** %1
  %3 = getelementptr inbounds %"class.std::_Rb_tree"* %2, i32 0, i32 0
  %4 = getelementptr inbounds %"struct.std::_Rb_tree<int, int, std::_Identity<int>, std::less<int>, std::allocator<int> >::_Rb_tree_impl"* %3, i32 0, i32 2
  %5 = load i64* %4, align 8
  ret i64 %5
}

; Function Attrs: uwtable
define linkonce_odr void @_ZNSt8_Rb_treeIiiSt9_IdentityIiESt4lessIiESaIiEE5eraseESt17_Rb_tree_iteratorIiES7_(%"class.std::_Rb_tree"* %this, %"struct.std::_Rb_tree_node_base"* %__first.coerce, %"struct.std::_Rb_tree_node_base"* %__last.coerce) #2 align 2 {
  %__first = alloca %"struct.std::_Rb_tree_iterator", align 8
  %__last = alloca %"struct.std::_Rb_tree_iterator", align 8
  %1 = alloca %"class.std::_Rb_tree"*, align 8
  %2 = alloca %"struct.std::_Rb_tree_const_iterator", align 8
  %3 = alloca %"struct.std::_Rb_tree_const_iterator", align 8
  %4 = getelementptr %"struct.std::_Rb_tree_iterator"* %__first, i32 0, i32 0
  store %"struct.std::_Rb_tree_node_base"* %__first.coerce, %"struct.std::_Rb_tree_node_base"** %4
  %5 = getelementptr %"struct.std::_Rb_tree_iterator"* %__last, i32 0, i32 0
  store %"struct.std::_Rb_tree_node_base"* %__last.coerce, %"struct.std::_Rb_tree_node_base"** %5
  store %"class.std::_Rb_tree"* %this, %"class.std::_Rb_tree"** %1, align 8
  %6 = load %"class.std::_Rb_tree"** %1
  call void @_ZNSt23_Rb_tree_const_iteratorIiEC2ERKSt17_Rb_tree_iteratorIiE(%"struct.std::_Rb_tree_const_iterator"* %2, %"struct.std::_Rb_tree_iterator"* %__first)
  call void @_ZNSt23_Rb_tree_const_iteratorIiEC2ERKSt17_Rb_tree_iteratorIiE(%"struct.std::_Rb_tree_const_iterator"* %3, %"struct.std::_Rb_tree_iterator"* %__last)
  %7 = getelementptr %"struct.std::_Rb_tree_const_iterator"* %2, i32 0, i32 0
  %8 = load %"struct.std::_Rb_tree_node_base"** %7
  %9 = getelementptr %"struct.std::_Rb_tree_const_iterator"* %3, i32 0, i32 0
  %10 = load %"struct.std::_Rb_tree_node_base"** %9
  call void @_ZNSt8_Rb_treeIiiSt9_IdentityIiESt4lessIiESaIiEE12_M_erase_auxESt23_Rb_tree_const_iteratorIiES7_(%"class.std::_Rb_tree"* %6, %"struct.std::_Rb_tree_node_base"* %8, %"struct.std::_Rb_tree_node_base"* %10)
  ret void
}

; Function Attrs: uwtable
define linkonce_odr void @_ZNSt8_Rb_treeIiiSt9_IdentityIiESt4lessIiESaIiEE12_M_erase_auxESt23_Rb_tree_const_iteratorIiES7_(%"class.std::_Rb_tree"* %this, %"struct.std::_Rb_tree_node_base"* %__first.coerce, %"struct.std::_Rb_tree_node_base"* %__last.coerce) #2 align 2 {
  %__first = alloca %"struct.std::_Rb_tree_const_iterator", align 8
  %__last = alloca %"struct.std::_Rb_tree_const_iterator", align 8
  %1 = alloca %"class.std::_Rb_tree"*, align 8
  %2 = alloca %"struct.std::_Rb_tree_const_iterator", align 8
  %3 = alloca %"struct.std::_Rb_tree_iterator", align 8
  %4 = alloca %"struct.std::_Rb_tree_const_iterator", align 8
  %5 = alloca %"struct.std::_Rb_tree_iterator", align 8
  %6 = alloca %"struct.std::_Rb_tree_const_iterator", align 8
  %7 = getelementptr %"struct.std::_Rb_tree_const_iterator"* %__first, i32 0, i32 0
  store %"struct.std::_Rb_tree_node_base"* %__first.coerce, %"struct.std::_Rb_tree_node_base"** %7
  %8 = getelementptr %"struct.std::_Rb_tree_const_iterator"* %__last, i32 0, i32 0
  store %"struct.std::_Rb_tree_node_base"* %__last.coerce, %"struct.std::_Rb_tree_node_base"** %8
  store %"class.std::_Rb_tree"* %this, %"class.std::_Rb_tree"** %1, align 8
  %9 = load %"class.std::_Rb_tree"** %1
  %10 = call %"struct.std::_Rb_tree_node_base"* @_ZNSt8_Rb_treeIiiSt9_IdentityIiESt4lessIiESaIiEE5beginEv(%"class.std::_Rb_tree"* %9)
  %11 = getelementptr %"struct.std::_Rb_tree_iterator"* %3, i32 0, i32 0
  store %"struct.std::_Rb_tree_node_base"* %10, %"struct.std::_Rb_tree_node_base"** %11
  call void @_ZNSt23_Rb_tree_const_iteratorIiEC2ERKSt17_Rb_tree_iteratorIiE(%"struct.std::_Rb_tree_const_iterator"* %2, %"struct.std::_Rb_tree_iterator"* %3)
  %12 = call zeroext i1 @_ZNKSt23_Rb_tree_const_iteratorIiEeqERKS0_(%"struct.std::_Rb_tree_const_iterator"* %__first, %"struct.std::_Rb_tree_const_iterator"* %2)
  br i1 %12, label %13, label %18

; <label>:13                                      ; preds = %0
  %14 = call %"struct.std::_Rb_tree_node_base"* @_ZNSt8_Rb_treeIiiSt9_IdentityIiESt4lessIiESaIiEE3endEv(%"class.std::_Rb_tree"* %9)
  %15 = getelementptr %"struct.std::_Rb_tree_iterator"* %5, i32 0, i32 0
  store %"struct.std::_Rb_tree_node_base"* %14, %"struct.std::_Rb_tree_node_base"** %15
  call void @_ZNSt23_Rb_tree_const_iteratorIiEC2ERKSt17_Rb_tree_iteratorIiE(%"struct.std::_Rb_tree_const_iterator"* %4, %"struct.std::_Rb_tree_iterator"* %5)
  %16 = call zeroext i1 @_ZNKSt23_Rb_tree_const_iteratorIiEeqERKS0_(%"struct.std::_Rb_tree_const_iterator"* %__last, %"struct.std::_Rb_tree_const_iterator"* %4)
  br i1 %16, label %17, label %18

; <label>:17                                      ; preds = %13
  call void @_ZNSt8_Rb_treeIiiSt9_IdentityIiESt4lessIiESaIiEE5clearEv(%"class.std::_Rb_tree"* %9)
  br label %27

; <label>:18                                      ; preds = %13, %0
  br label %19

; <label>:19                                      ; preds = %21, %18
  %20 = call zeroext i1 @_ZNKSt23_Rb_tree_const_iteratorIiEneERKS0_(%"struct.std::_Rb_tree_const_iterator"* %__first, %"struct.std::_Rb_tree_const_iterator"* %__last)
  br i1 %20, label %21, label %26

; <label>:21                                      ; preds = %19
  %22 = call %"struct.std::_Rb_tree_node_base"* @_ZNSt23_Rb_tree_const_iteratorIiEppEi(%"struct.std::_Rb_tree_const_iterator"* %__first, i32 0)
  %23 = getelementptr %"struct.std::_Rb_tree_const_iterator"* %6, i32 0, i32 0
  store %"struct.std::_Rb_tree_node_base"* %22, %"struct.std::_Rb_tree_node_base"** %23
  %24 = getelementptr %"struct.std::_Rb_tree_const_iterator"* %6, i32 0, i32 0
  %25 = load %"struct.std::_Rb_tree_node_base"** %24
  call void @_ZNSt8_Rb_treeIiiSt9_IdentityIiESt4lessIiESaIiEE5eraseESt23_Rb_tree_const_iteratorIiE(%"class.std::_Rb_tree"* %9, %"struct.std::_Rb_tree_node_base"* %25)
  br label %19

; <label>:26                                      ; preds = %19
  br label %27

; <label>:27                                      ; preds = %26, %17
  ret void
}

; Function Attrs: nounwind uwtable
define linkonce_odr void @_ZNSt23_Rb_tree_const_iteratorIiEC2ERKSt17_Rb_tree_iteratorIiE(%"struct.std::_Rb_tree_const_iterator"* %this, %"struct.std::_Rb_tree_iterator"* %__it) unnamed_addr #5 align 2 {
  %1 = alloca %"struct.std::_Rb_tree_const_iterator"*, align 8
  %2 = alloca %"struct.std::_Rb_tree_iterator"*, align 8
  store %"struct.std::_Rb_tree_const_iterator"* %this, %"struct.std::_Rb_tree_const_iterator"** %1, align 8
  store %"struct.std::_Rb_tree_iterator"* %__it, %"struct.std::_Rb_tree_iterator"** %2, align 8
  %3 = load %"struct.std::_Rb_tree_const_iterator"** %1
  %4 = getelementptr inbounds %"struct.std::_Rb_tree_const_iterator"* %3, i32 0, i32 0
  %5 = load %"struct.std::_Rb_tree_iterator"** %2, align 8
  %6 = getelementptr inbounds %"struct.std::_Rb_tree_iterator"* %5, i32 0, i32 0
  %7 = load %"struct.std::_Rb_tree_node_base"** %6, align 8
  store %"struct.std::_Rb_tree_node_base"* %7, %"struct.std::_Rb_tree_node_base"** %4, align 8
  ret void
}

; Function Attrs: uwtable
define linkonce_odr %"struct.std::_Rb_tree_node_base"* @_ZNSt8_Rb_treeIiiSt9_IdentityIiESt4lessIiESaIiEE5beginEv(%"class.std::_Rb_tree"* %this) #2 align 2 {
  %1 = alloca %"struct.std::_Rb_tree_iterator", align 8
  %2 = alloca %"class.std::_Rb_tree"*, align 8
  store %"class.std::_Rb_tree"* %this, %"class.std::_Rb_tree"** %2, align 8
  %3 = load %"class.std::_Rb_tree"** %2
  %4 = getelementptr inbounds %"class.std::_Rb_tree"* %3, i32 0, i32 0
  %5 = getelementptr inbounds %"struct.std::_Rb_tree<int, int, std::_Identity<int>, std::less<int>, std::allocator<int> >::_Rb_tree_impl"* %4, i32 0, i32 1
  %6 = getelementptr inbounds %"struct.std::_Rb_tree_node_base"* %5, i32 0, i32 2
  %7 = load %"struct.std::_Rb_tree_node_base"** %6, align 8
  %8 = bitcast %"struct.std::_Rb_tree_node_base"* %7 to %"struct.std::_Rb_tree_node"*
  call void @_ZNSt17_Rb_tree_iteratorIiEC2EPSt13_Rb_tree_nodeIiE(%"struct.std::_Rb_tree_iterator"* %1, %"struct.std::_Rb_tree_node"* %8)
  %9 = getelementptr %"struct.std::_Rb_tree_iterator"* %1, i32 0, i32 0
  %10 = load %"struct.std::_Rb_tree_node_base"** %9
  ret %"struct.std::_Rb_tree_node_base"* %10
}

; Function Attrs: uwtable
define linkonce_odr %"struct.std::_Rb_tree_node_base"* @_ZNSt8_Rb_treeIiiSt9_IdentityIiESt4lessIiESaIiEE3endEv(%"class.std::_Rb_tree"* %this) #2 align 2 {
  %1 = alloca %"struct.std::_Rb_tree_iterator", align 8
  %2 = alloca %"class.std::_Rb_tree"*, align 8
  store %"class.std::_Rb_tree"* %this, %"class.std::_Rb_tree"** %2, align 8
  %3 = load %"class.std::_Rb_tree"** %2
  %4 = getelementptr inbounds %"class.std::_Rb_tree"* %3, i32 0, i32 0
  %5 = getelementptr inbounds %"struct.std::_Rb_tree<int, int, std::_Identity<int>, std::less<int>, std::allocator<int> >::_Rb_tree_impl"* %4, i32 0, i32 1
  %6 = bitcast %"struct.std::_Rb_tree_node_base"* %5 to %"struct.std::_Rb_tree_node"*
  call void @_ZNSt17_Rb_tree_iteratorIiEC2EPSt13_Rb_tree_nodeIiE(%"struct.std::_Rb_tree_iterator"* %1, %"struct.std::_Rb_tree_node"* %6)
  %7 = getelementptr %"struct.std::_Rb_tree_iterator"* %1, i32 0, i32 0
  %8 = load %"struct.std::_Rb_tree_node_base"** %7
  ret %"struct.std::_Rb_tree_node_base"* %8
}

; Function Attrs: uwtable
define linkonce_odr void @_ZNSt8_Rb_treeIiiSt9_IdentityIiESt4lessIiESaIiEE5clearEv(%"class.std::_Rb_tree"* %this) #2 align 2 {
  %1 = alloca %"class.std::_Rb_tree"*, align 8
  store %"class.std::_Rb_tree"* %this, %"class.std::_Rb_tree"** %1, align 8
  %2 = load %"class.std::_Rb_tree"** %1
  %3 = call %"struct.std::_Rb_tree_node"* @_ZNSt8_Rb_treeIiiSt9_IdentityIiESt4lessIiESaIiEE8_M_beginEv(%"class.std::_Rb_tree"* %2)
  call void @_ZNSt8_Rb_treeIiiSt9_IdentityIiESt4lessIiESaIiEE8_M_eraseEPSt13_Rb_tree_nodeIiE(%"class.std::_Rb_tree"* %2, %"struct.std::_Rb_tree_node"* %3)
  %4 = call %"struct.std::_Rb_tree_node"* @_ZNSt8_Rb_treeIiiSt9_IdentityIiESt4lessIiESaIiEE6_M_endEv(%"class.std::_Rb_tree"* %2)
  %5 = bitcast %"struct.std::_Rb_tree_node"* %4 to %"struct.std::_Rb_tree_node_base"*
  %6 = call %"struct.std::_Rb_tree_node_base"** @_ZNSt8_Rb_treeIiiSt9_IdentityIiESt4lessIiESaIiEE11_M_leftmostEv(%"class.std::_Rb_tree"* %2)
  store %"struct.std::_Rb_tree_node_base"* %5, %"struct.std::_Rb_tree_node_base"** %6
  %7 = call %"struct.std::_Rb_tree_node_base"** @_ZNSt8_Rb_treeIiiSt9_IdentityIiESt4lessIiESaIiEE7_M_rootEv(%"class.std::_Rb_tree"* %2)
  store %"struct.std::_Rb_tree_node_base"* null, %"struct.std::_Rb_tree_node_base"** %7
  %8 = call %"struct.std::_Rb_tree_node"* @_ZNSt8_Rb_treeIiiSt9_IdentityIiESt4lessIiESaIiEE6_M_endEv(%"class.std::_Rb_tree"* %2)
  %9 = bitcast %"struct.std::_Rb_tree_node"* %8 to %"struct.std::_Rb_tree_node_base"*
  %10 = call %"struct.std::_Rb_tree_node_base"** @_ZNSt8_Rb_treeIiiSt9_IdentityIiESt4lessIiESaIiEE12_M_rightmostEv(%"class.std::_Rb_tree"* %2)
  store %"struct.std::_Rb_tree_node_base"* %9, %"struct.std::_Rb_tree_node_base"** %10
  %11 = getelementptr inbounds %"class.std::_Rb_tree"* %2, i32 0, i32 0
  %12 = getelementptr inbounds %"struct.std::_Rb_tree<int, int, std::_Identity<int>, std::less<int>, std::allocator<int> >::_Rb_tree_impl"* %11, i32 0, i32 2
  store i64 0, i64* %12, align 8
  ret void
}

; Function Attrs: uwtable
define linkonce_odr void @_ZNSt8_Rb_treeIiiSt9_IdentityIiESt4lessIiESaIiEE5eraseESt23_Rb_tree_const_iteratorIiE(%"class.std::_Rb_tree"* %this, %"struct.std::_Rb_tree_node_base"* %__position.coerce) #2 align 2 {
  %__position = alloca %"struct.std::_Rb_tree_const_iterator", align 8
  %1 = alloca %"class.std::_Rb_tree"*, align 8
  %2 = alloca %"struct.std::_Rb_tree_const_iterator", align 8
  %3 = getelementptr %"struct.std::_Rb_tree_const_iterator"* %__position, i32 0, i32 0
  store %"struct.std::_Rb_tree_node_base"* %__position.coerce, %"struct.std::_Rb_tree_node_base"** %3
  store %"class.std::_Rb_tree"* %this, %"class.std::_Rb_tree"** %1, align 8
  %4 = load %"class.std::_Rb_tree"** %1
  %5 = bitcast %"struct.std::_Rb_tree_const_iterator"* %2 to i8*
  %6 = bitcast %"struct.std::_Rb_tree_const_iterator"* %__position to i8*
  call void @llvm.memcpy.p0i8.p0i8.i64(i8* %5, i8* %6, i64 8, i32 8, i1 false)
  %7 = getelementptr %"struct.std::_Rb_tree_const_iterator"* %2, i32 0, i32 0
  %8 = load %"struct.std::_Rb_tree_node_base"** %7
  call void @_ZNSt8_Rb_treeIiiSt9_IdentityIiESt4lessIiESaIiEE12_M_erase_auxESt23_Rb_tree_const_iteratorIiE(%"class.std::_Rb_tree"* %4, %"struct.std::_Rb_tree_node_base"* %8)
  ret void
}

; Function Attrs: nounwind uwtable
define linkonce_odr %"struct.std::_Rb_tree_node_base"* @_ZNSt23_Rb_tree_const_iteratorIiEppEi(%"struct.std::_Rb_tree_const_iterator"* %this, i32) #5 align 2 {
  %2 = alloca %"struct.std::_Rb_tree_const_iterator", align 8
  %3 = alloca %"struct.std::_Rb_tree_const_iterator"*, align 8
  %4 = alloca i32, align 4
  store %"struct.std::_Rb_tree_const_iterator"* %this, %"struct.std::_Rb_tree_const_iterator"** %3, align 8
  store i32 %0, i32* %4, align 4
  %5 = load %"struct.std::_Rb_tree_const_iterator"** %3
  %6 = bitcast %"struct.std::_Rb_tree_const_iterator"* %2 to i8*
  %7 = bitcast %"struct.std::_Rb_tree_const_iterator"* %5 to i8*
  call void @llvm.memcpy.p0i8.p0i8.i64(i8* %6, i8* %7, i64 8, i32 8, i1 false)
  %8 = getelementptr inbounds %"struct.std::_Rb_tree_const_iterator"* %5, i32 0, i32 0
  %9 = load %"struct.std::_Rb_tree_node_base"** %8, align 8
  %10 = call %"struct.std::_Rb_tree_node_base"* @_ZSt18_Rb_tree_incrementPKSt18_Rb_tree_node_base(%"struct.std::_Rb_tree_node_base"* %9) #13
  %11 = getelementptr inbounds %"struct.std::_Rb_tree_const_iterator"* %5, i32 0, i32 0
  store %"struct.std::_Rb_tree_node_base"* %10, %"struct.std::_Rb_tree_node_base"** %11, align 8
  %12 = getelementptr %"struct.std::_Rb_tree_const_iterator"* %2, i32 0, i32 0
  %13 = load %"struct.std::_Rb_tree_node_base"** %12
  ret %"struct.std::_Rb_tree_node_base"* %13
}

; Function Attrs: nounwind readonly
declare %"struct.std::_Rb_tree_node_base"* @_ZSt18_Rb_tree_incrementPKSt18_Rb_tree_node_base(%"struct.std::_Rb_tree_node_base"*) #6

; Function Attrs: uwtable
define linkonce_odr void @_ZNSt8_Rb_treeIiiSt9_IdentityIiESt4lessIiESaIiEE12_M_erase_auxESt23_Rb_tree_const_iteratorIiE(%"class.std::_Rb_tree"* %this, %"struct.std::_Rb_tree_node_base"* %__position.coerce) #2 align 2 {
  %__position = alloca %"struct.std::_Rb_tree_const_iterator", align 8
  %1 = alloca %"class.std::_Rb_tree"*, align 8
  %__y = alloca %"struct.std::_Rb_tree_node"*, align 8
  %2 = getelementptr %"struct.std::_Rb_tree_const_iterator"* %__position, i32 0, i32 0
  store %"struct.std::_Rb_tree_node_base"* %__position.coerce, %"struct.std::_Rb_tree_node_base"** %2
  store %"class.std::_Rb_tree"* %this, %"class.std::_Rb_tree"** %1, align 8
  %3 = load %"class.std::_Rb_tree"** %1
  %4 = getelementptr inbounds %"struct.std::_Rb_tree_const_iterator"* %__position, i32 0, i32 0
  %5 = load %"struct.std::_Rb_tree_node_base"** %4, align 8
  %6 = getelementptr inbounds %"class.std::_Rb_tree"* %3, i32 0, i32 0
  %7 = getelementptr inbounds %"struct.std::_Rb_tree<int, int, std::_Identity<int>, std::less<int>, std::allocator<int> >::_Rb_tree_impl"* %6, i32 0, i32 1
  %8 = call %"struct.std::_Rb_tree_node_base"* @_ZSt28_Rb_tree_rebalance_for_erasePSt18_Rb_tree_node_baseRS_(%"struct.std::_Rb_tree_node_base"* %5, %"struct.std::_Rb_tree_node_base"* %7) #1
  %9 = bitcast %"struct.std::_Rb_tree_node_base"* %8 to %"struct.std::_Rb_tree_node"*
  store %"struct.std::_Rb_tree_node"* %9, %"struct.std::_Rb_tree_node"** %__y, align 8
  %10 = load %"struct.std::_Rb_tree_node"** %__y, align 8
  call void @_ZNSt8_Rb_treeIiiSt9_IdentityIiESt4lessIiESaIiEE15_M_destroy_nodeEPSt13_Rb_tree_nodeIiE(%"class.std::_Rb_tree"* %3, %"struct.std::_Rb_tree_node"* %10)
  %11 = getelementptr inbounds %"class.std::_Rb_tree"* %3, i32 0, i32 0
  %12 = getelementptr inbounds %"struct.std::_Rb_tree<int, int, std::_Identity<int>, std::less<int>, std::allocator<int> >::_Rb_tree_impl"* %11, i32 0, i32 2
  %13 = load i64* %12, align 8
  %14 = add i64 %13, -1
  store i64 %14, i64* %12, align 8
  ret void
}

; Function Attrs: nounwind
declare %"struct.std::_Rb_tree_node_base"* @_ZSt28_Rb_tree_rebalance_for_erasePSt18_Rb_tree_node_baseRS_(%"struct.std::_Rb_tree_node_base"*, %"struct.std::_Rb_tree_node_base"*) #7

; Function Attrs: uwtable
define linkonce_odr void @_ZNSt8_Rb_treeIiiSt9_IdentityIiESt4lessIiESaIiEE15_M_destroy_nodeEPSt13_Rb_tree_nodeIiE(%"class.std::_Rb_tree"* %this, %"struct.std::_Rb_tree_node"* %__p) #2 align 2 {
  %1 = alloca %"class.std::_Rb_tree"*, align 8
  %2 = alloca %"struct.std::_Rb_tree_node"*, align 8
  %3 = alloca %"class.std::allocator.2", align 1
  %4 = alloca i8*
  %5 = alloca i32
  store %"class.std::_Rb_tree"* %this, %"class.std::_Rb_tree"** %1, align 8
  store %"struct.std::_Rb_tree_node"* %__p, %"struct.std::_Rb_tree_node"** %2, align 8
  %6 = load %"class.std::_Rb_tree"** %1
  call void @_ZNKSt8_Rb_treeIiiSt9_IdentityIiESt4lessIiESaIiEE13get_allocatorEv(%"class.std::allocator.2"* sret %3, %"class.std::_Rb_tree"* %6)
  %7 = bitcast %"class.std::allocator.2"* %3 to %"class.__gnu_cxx::new_allocator.3"*
  %8 = load %"struct.std::_Rb_tree_node"** %2, align 8
  %9 = getelementptr inbounds %"struct.std::_Rb_tree_node"* %8, i32 0, i32 1
  %10 = invoke i32* @_ZSt11__addressofIiEPT_RS0_(i32* %9)
          to label %11 unwind label %14

; <label>:11                                      ; preds = %0
  invoke void @_ZN9__gnu_cxx13new_allocatorIiE7destroyEPi(%"class.__gnu_cxx::new_allocator.3"* %7, i32* %10)
          to label %12 unwind label %14

; <label>:12                                      ; preds = %11
  call void @_ZNSaIiED2Ev(%"class.std::allocator.2"* %3) #1
  %13 = load %"struct.std::_Rb_tree_node"** %2, align 8
  call void @_ZNSt8_Rb_treeIiiSt9_IdentityIiESt4lessIiESaIiEE11_M_put_nodeEPSt13_Rb_tree_nodeIiE(%"class.std::_Rb_tree"* %6, %"struct.std::_Rb_tree_node"* %13)
  ret void

; <label>:14                                      ; preds = %11, %0
  %15 = landingpad { i8*, i32 } personality i8* bitcast (i32 (...)* @__gxx_personality_v0 to i8*)
          cleanup
  %16 = extractvalue { i8*, i32 } %15, 0
  store i8* %16, i8** %4
  %17 = extractvalue { i8*, i32 } %15, 1
  store i32 %17, i32* %5
  call void @_ZNSaIiED2Ev(%"class.std::allocator.2"* %3) #1
  br label %18

; <label>:18                                      ; preds = %14
  %19 = load i8** %4
  %20 = load i32* %5
  %21 = insertvalue { i8*, i32 } undef, i8* %19, 0
  %22 = insertvalue { i8*, i32 } %21, i32 %20, 1
  resume { i8*, i32 } %22
}

; Function Attrs: uwtable
define linkonce_odr void @_ZNKSt8_Rb_treeIiiSt9_IdentityIiESt4lessIiESaIiEE13get_allocatorEv(%"class.std::allocator.2"* noalias sret %agg.result, %"class.std::_Rb_tree"* %this) #2 align 2 {
  %1 = alloca %"class.std::_Rb_tree"*, align 8
  store %"class.std::_Rb_tree"* %this, %"class.std::_Rb_tree"** %1, align 8
  %2 = load %"class.std::_Rb_tree"** %1
  %3 = call %"class.std::allocator.14"* @_ZNKSt8_Rb_treeIiiSt9_IdentityIiESt4lessIiESaIiEE21_M_get_Node_allocatorEv(%"class.std::_Rb_tree"* %2)
  call void @_ZNSaIiEC2ISt13_Rb_tree_nodeIiEEERKSaIT_E(%"class.std::allocator.2"* %agg.result, %"class.std::allocator.14"* %3) #1
  ret void
}

; Function Attrs: nounwind uwtable
define linkonce_odr void @_ZN9__gnu_cxx13new_allocatorIiE7destroyEPi(%"class.__gnu_cxx::new_allocator.3"* %this, i32* %__p) #5 align 2 {
  %1 = alloca %"class.__gnu_cxx::new_allocator.3"*, align 8
  %2 = alloca i32*, align 8
  store %"class.__gnu_cxx::new_allocator.3"* %this, %"class.__gnu_cxx::new_allocator.3"** %1, align 8
  store i32* %__p, i32** %2, align 8
  %3 = load %"class.__gnu_cxx::new_allocator.3"** %1
  %4 = load i32** %2, align 8
  ret void
}

; Function Attrs: inlinehint nounwind uwtable
define linkonce_odr i32* @_ZSt11__addressofIiEPT_RS0_(i32* %__r) #8 {
  %1 = alloca i32*, align 8
  store i32* %__r, i32** %1, align 8
  %2 = load i32** %1, align 8
  %3 = bitcast i32* %2 to i8*
  %4 = bitcast i8* %3 to i32*
  ret i32* %4
}

; Function Attrs: nounwind uwtable
define linkonce_odr void @_ZNSaIiED2Ev(%"class.std::allocator.2"* %this) unnamed_addr #5 align 2 {
  %1 = alloca %"class.std::allocator.2"*, align 8
  store %"class.std::allocator.2"* %this, %"class.std::allocator.2"** %1, align 8
  %2 = load %"class.std::allocator.2"** %1
  %3 = bitcast %"class.std::allocator.2"* %2 to %"class.__gnu_cxx::new_allocator.3"*
  call void @_ZN9__gnu_cxx13new_allocatorIiED2Ev(%"class.__gnu_cxx::new_allocator.3"* %3) #1
  ret void
}

; Function Attrs: uwtable
define linkonce_odr void @_ZNSt8_Rb_treeIiiSt9_IdentityIiESt4lessIiESaIiEE11_M_put_nodeEPSt13_Rb_tree_nodeIiE(%"class.std::_Rb_tree"* %this, %"struct.std::_Rb_tree_node"* %__p) #2 align 2 {
  %1 = alloca %"class.std::_Rb_tree"*, align 8
  %2 = alloca %"struct.std::_Rb_tree_node"*, align 8
  store %"class.std::_Rb_tree"* %this, %"class.std::_Rb_tree"** %1, align 8
  store %"struct.std::_Rb_tree_node"* %__p, %"struct.std::_Rb_tree_node"** %2, align 8
  %3 = load %"class.std::_Rb_tree"** %1
  %4 = getelementptr inbounds %"class.std::_Rb_tree"* %3, i32 0, i32 0
  %5 = bitcast %"struct.std::_Rb_tree<int, int, std::_Identity<int>, std::less<int>, std::allocator<int> >::_Rb_tree_impl"* %4 to %"class.std::allocator.14"*
  %6 = bitcast %"class.std::allocator.14"* %5 to %"class.__gnu_cxx::new_allocator.15"*
  %7 = load %"struct.std::_Rb_tree_node"** %2, align 8
  call void @_ZN9__gnu_cxx13new_allocatorISt13_Rb_tree_nodeIiEE10deallocateEPS2_m(%"class.__gnu_cxx::new_allocator.15"* %6, %"struct.std::_Rb_tree_node"* %7, i64 1)
  ret void
}

; Function Attrs: nounwind uwtable
define linkonce_odr void @_ZN9__gnu_cxx13new_allocatorISt13_Rb_tree_nodeIiEE10deallocateEPS2_m(%"class.__gnu_cxx::new_allocator.15"* %this, %"struct.std::_Rb_tree_node"* %__p, i64) #5 align 2 {
  %2 = alloca %"class.__gnu_cxx::new_allocator.15"*, align 8
  %3 = alloca %"struct.std::_Rb_tree_node"*, align 8
  %4 = alloca i64, align 8
  store %"class.__gnu_cxx::new_allocator.15"* %this, %"class.__gnu_cxx::new_allocator.15"** %2, align 8
  store %"struct.std::_Rb_tree_node"* %__p, %"struct.std::_Rb_tree_node"** %3, align 8
  store i64 %0, i64* %4, align 8
  %5 = load %"class.__gnu_cxx::new_allocator.15"** %2
  %6 = load %"struct.std::_Rb_tree_node"** %3, align 8
  %7 = bitcast %"struct.std::_Rb_tree_node"* %6 to i8*
  call void @_ZdlPv(i8* %7) #1
  ret void
}

; Function Attrs: nobuiltin nounwind
declare void @_ZdlPv(i8*) #9

; Function Attrs: nounwind uwtable
define linkonce_odr void @_ZN9__gnu_cxx13new_allocatorIiED2Ev(%"class.__gnu_cxx::new_allocator.3"* %this) unnamed_addr #5 align 2 {
  %1 = alloca %"class.__gnu_cxx::new_allocator.3"*, align 8
  store %"class.__gnu_cxx::new_allocator.3"* %this, %"class.__gnu_cxx::new_allocator.3"** %1, align 8
  %2 = load %"class.__gnu_cxx::new_allocator.3"** %1
  ret void
}

; Function Attrs: nounwind uwtable
define linkonce_odr %"class.std::allocator.14"* @_ZNKSt8_Rb_treeIiiSt9_IdentityIiESt4lessIiESaIiEE21_M_get_Node_allocatorEv(%"class.std::_Rb_tree"* %this) #5 align 2 {
  %1 = alloca %"class.std::_Rb_tree"*, align 8
  store %"class.std::_Rb_tree"* %this, %"class.std::_Rb_tree"** %1, align 8
  %2 = load %"class.std::_Rb_tree"** %1
  %3 = getelementptr inbounds %"class.std::_Rb_tree"* %2, i32 0, i32 0
  %4 = bitcast %"struct.std::_Rb_tree<int, int, std::_Identity<int>, std::less<int>, std::allocator<int> >::_Rb_tree_impl"* %3 to %"class.std::allocator.14"*
  ret %"class.std::allocator.14"* %4
}

; Function Attrs: nounwind uwtable
define linkonce_odr void @_ZNSaIiEC2ISt13_Rb_tree_nodeIiEEERKSaIT_E(%"class.std::allocator.2"* %this, %"class.std::allocator.14"*) unnamed_addr #5 align 2 {
  %2 = alloca %"class.std::allocator.2"*, align 8
  %3 = alloca %"class.std::allocator.14"*, align 8
  store %"class.std::allocator.2"* %this, %"class.std::allocator.2"** %2, align 8
  store %"class.std::allocator.14"* %0, %"class.std::allocator.14"** %3, align 8
  %4 = load %"class.std::allocator.2"** %2
  %5 = bitcast %"class.std::allocator.2"* %4 to %"class.__gnu_cxx::new_allocator.3"*
  call void @_ZN9__gnu_cxx13new_allocatorIiEC2Ev(%"class.__gnu_cxx::new_allocator.3"* %5) #1
  ret void
}

; Function Attrs: nounwind uwtable
define linkonce_odr void @_ZN9__gnu_cxx13new_allocatorIiEC2Ev(%"class.__gnu_cxx::new_allocator.3"* %this) unnamed_addr #5 align 2 {
  %1 = alloca %"class.__gnu_cxx::new_allocator.3"*, align 8
  store %"class.__gnu_cxx::new_allocator.3"* %this, %"class.__gnu_cxx::new_allocator.3"** %1, align 8
  %2 = load %"class.__gnu_cxx::new_allocator.3"** %1
  ret void
}

; Function Attrs: uwtable
define linkonce_odr void @_ZNSt8_Rb_treeIiiSt9_IdentityIiESt4lessIiESaIiEE8_M_eraseEPSt13_Rb_tree_nodeIiE(%"class.std::_Rb_tree"* %this, %"struct.std::_Rb_tree_node"* %__x) #2 align 2 {
  %1 = alloca %"class.std::_Rb_tree"*, align 8
  %2 = alloca %"struct.std::_Rb_tree_node"*, align 8
  %__y = alloca %"struct.std::_Rb_tree_node"*, align 8
  store %"class.std::_Rb_tree"* %this, %"class.std::_Rb_tree"** %1, align 8
  store %"struct.std::_Rb_tree_node"* %__x, %"struct.std::_Rb_tree_node"** %2, align 8
  %3 = load %"class.std::_Rb_tree"** %1
  br label %4

; <label>:4                                       ; preds = %7, %0
  %5 = load %"struct.std::_Rb_tree_node"** %2, align 8
  %6 = icmp ne %"struct.std::_Rb_tree_node"* %5, null
  br i1 %6, label %7, label %16

; <label>:7                                       ; preds = %4
  %8 = load %"struct.std::_Rb_tree_node"** %2, align 8
  %9 = bitcast %"struct.std::_Rb_tree_node"* %8 to %"struct.std::_Rb_tree_node_base"*
  %10 = call %"struct.std::_Rb_tree_node"* @_ZNSt8_Rb_treeIiiSt9_IdentityIiESt4lessIiESaIiEE8_S_rightEPSt18_Rb_tree_node_base(%"struct.std::_Rb_tree_node_base"* %9)
  call void @_ZNSt8_Rb_treeIiiSt9_IdentityIiESt4lessIiESaIiEE8_M_eraseEPSt13_Rb_tree_nodeIiE(%"class.std::_Rb_tree"* %3, %"struct.std::_Rb_tree_node"* %10)
  %11 = load %"struct.std::_Rb_tree_node"** %2, align 8
  %12 = bitcast %"struct.std::_Rb_tree_node"* %11 to %"struct.std::_Rb_tree_node_base"*
  %13 = call %"struct.std::_Rb_tree_node"* @_ZNSt8_Rb_treeIiiSt9_IdentityIiESt4lessIiESaIiEE7_S_leftEPSt18_Rb_tree_node_base(%"struct.std::_Rb_tree_node_base"* %12)
  store %"struct.std::_Rb_tree_node"* %13, %"struct.std::_Rb_tree_node"** %__y, align 8
  %14 = load %"struct.std::_Rb_tree_node"** %2, align 8
  call void @_ZNSt8_Rb_treeIiiSt9_IdentityIiESt4lessIiESaIiEE15_M_destroy_nodeEPSt13_Rb_tree_nodeIiE(%"class.std::_Rb_tree"* %3, %"struct.std::_Rb_tree_node"* %14)
  %15 = load %"struct.std::_Rb_tree_node"** %__y, align 8
  store %"struct.std::_Rb_tree_node"* %15, %"struct.std::_Rb_tree_node"** %2, align 8
  br label %4

; <label>:16                                      ; preds = %4
  ret void
}

; Function Attrs: nounwind uwtable
define linkonce_odr %"struct.std::_Rb_tree_node"* @_ZNSt8_Rb_treeIiiSt9_IdentityIiESt4lessIiESaIiEE8_M_beginEv(%"class.std::_Rb_tree"* %this) #5 align 2 {
  %1 = alloca %"class.std::_Rb_tree"*, align 8
  store %"class.std::_Rb_tree"* %this, %"class.std::_Rb_tree"** %1, align 8
  %2 = load %"class.std::_Rb_tree"** %1
  %3 = getelementptr inbounds %"class.std::_Rb_tree"* %2, i32 0, i32 0
  %4 = getelementptr inbounds %"struct.std::_Rb_tree<int, int, std::_Identity<int>, std::less<int>, std::allocator<int> >::_Rb_tree_impl"* %3, i32 0, i32 1
  %5 = getelementptr inbounds %"struct.std::_Rb_tree_node_base"* %4, i32 0, i32 1
  %6 = load %"struct.std::_Rb_tree_node_base"** %5, align 8
  %7 = bitcast %"struct.std::_Rb_tree_node_base"* %6 to %"struct.std::_Rb_tree_node"*
  ret %"struct.std::_Rb_tree_node"* %7
}

; Function Attrs: nounwind uwtable
define linkonce_odr %"struct.std::_Rb_tree_node"* @_ZNSt8_Rb_treeIiiSt9_IdentityIiESt4lessIiESaIiEE6_M_endEv(%"class.std::_Rb_tree"* %this) #5 align 2 {
  %1 = alloca %"class.std::_Rb_tree"*, align 8
  store %"class.std::_Rb_tree"* %this, %"class.std::_Rb_tree"** %1, align 8
  %2 = load %"class.std::_Rb_tree"** %1
  %3 = getelementptr inbounds %"class.std::_Rb_tree"* %2, i32 0, i32 0
  %4 = getelementptr inbounds %"struct.std::_Rb_tree<int, int, std::_Identity<int>, std::less<int>, std::allocator<int> >::_Rb_tree_impl"* %3, i32 0, i32 1
  %5 = bitcast %"struct.std::_Rb_tree_node_base"* %4 to %"struct.std::_Rb_tree_node"*
  ret %"struct.std::_Rb_tree_node"* %5
}

; Function Attrs: nounwind uwtable
define linkonce_odr %"struct.std::_Rb_tree_node_base"** @_ZNSt8_Rb_treeIiiSt9_IdentityIiESt4lessIiESaIiEE11_M_leftmostEv(%"class.std::_Rb_tree"* %this) #5 align 2 {
  %1 = alloca %"class.std::_Rb_tree"*, align 8
  store %"class.std::_Rb_tree"* %this, %"class.std::_Rb_tree"** %1, align 8
  %2 = load %"class.std::_Rb_tree"** %1
  %3 = getelementptr inbounds %"class.std::_Rb_tree"* %2, i32 0, i32 0
  %4 = getelementptr inbounds %"struct.std::_Rb_tree<int, int, std::_Identity<int>, std::less<int>, std::allocator<int> >::_Rb_tree_impl"* %3, i32 0, i32 1
  %5 = getelementptr inbounds %"struct.std::_Rb_tree_node_base"* %4, i32 0, i32 2
  ret %"struct.std::_Rb_tree_node_base"** %5
}

; Function Attrs: nounwind uwtable
define linkonce_odr %"struct.std::_Rb_tree_node_base"** @_ZNSt8_Rb_treeIiiSt9_IdentityIiESt4lessIiESaIiEE7_M_rootEv(%"class.std::_Rb_tree"* %this) #5 align 2 {
  %1 = alloca %"class.std::_Rb_tree"*, align 8
  store %"class.std::_Rb_tree"* %this, %"class.std::_Rb_tree"** %1, align 8
  %2 = load %"class.std::_Rb_tree"** %1
  %3 = getelementptr inbounds %"class.std::_Rb_tree"* %2, i32 0, i32 0
  %4 = getelementptr inbounds %"struct.std::_Rb_tree<int, int, std::_Identity<int>, std::less<int>, std::allocator<int> >::_Rb_tree_impl"* %3, i32 0, i32 1
  %5 = getelementptr inbounds %"struct.std::_Rb_tree_node_base"* %4, i32 0, i32 1
  ret %"struct.std::_Rb_tree_node_base"** %5
}

; Function Attrs: nounwind uwtable
define linkonce_odr %"struct.std::_Rb_tree_node_base"** @_ZNSt8_Rb_treeIiiSt9_IdentityIiESt4lessIiESaIiEE12_M_rightmostEv(%"class.std::_Rb_tree"* %this) #5 align 2 {
  %1 = alloca %"class.std::_Rb_tree"*, align 8
  store %"class.std::_Rb_tree"* %this, %"class.std::_Rb_tree"** %1, align 8
  %2 = load %"class.std::_Rb_tree"** %1
  %3 = getelementptr inbounds %"class.std::_Rb_tree"* %2, i32 0, i32 0
  %4 = getelementptr inbounds %"struct.std::_Rb_tree<int, int, std::_Identity<int>, std::less<int>, std::allocator<int> >::_Rb_tree_impl"* %3, i32 0, i32 1
  %5 = getelementptr inbounds %"struct.std::_Rb_tree_node_base"* %4, i32 0, i32 3
  ret %"struct.std::_Rb_tree_node_base"** %5
}

; Function Attrs: nounwind uwtable
define linkonce_odr %"struct.std::_Rb_tree_node"* @_ZNSt8_Rb_treeIiiSt9_IdentityIiESt4lessIiESaIiEE8_S_rightEPSt18_Rb_tree_node_base(%"struct.std::_Rb_tree_node_base"* %__x) #5 align 2 {
  %1 = alloca %"struct.std::_Rb_tree_node_base"*, align 8
  store %"struct.std::_Rb_tree_node_base"* %__x, %"struct.std::_Rb_tree_node_base"** %1, align 8
  %2 = load %"struct.std::_Rb_tree_node_base"** %1, align 8
  %3 = getelementptr inbounds %"struct.std::_Rb_tree_node_base"* %2, i32 0, i32 3
  %4 = load %"struct.std::_Rb_tree_node_base"** %3, align 8
  %5 = bitcast %"struct.std::_Rb_tree_node_base"* %4 to %"struct.std::_Rb_tree_node"*
  ret %"struct.std::_Rb_tree_node"* %5
}

; Function Attrs: nounwind uwtable
define linkonce_odr %"struct.std::_Rb_tree_node"* @_ZNSt8_Rb_treeIiiSt9_IdentityIiESt4lessIiESaIiEE7_S_leftEPSt18_Rb_tree_node_base(%"struct.std::_Rb_tree_node_base"* %__x) #5 align 2 {
  %1 = alloca %"struct.std::_Rb_tree_node_base"*, align 8
  store %"struct.std::_Rb_tree_node_base"* %__x, %"struct.std::_Rb_tree_node_base"** %1, align 8
  %2 = load %"struct.std::_Rb_tree_node_base"** %1, align 8
  %3 = getelementptr inbounds %"struct.std::_Rb_tree_node_base"* %2, i32 0, i32 2
  %4 = load %"struct.std::_Rb_tree_node_base"** %3, align 8
  %5 = bitcast %"struct.std::_Rb_tree_node_base"* %4 to %"struct.std::_Rb_tree_node"*
  ret %"struct.std::_Rb_tree_node"* %5
}

; Function Attrs: nounwind uwtable
define linkonce_odr void @_ZNSt17_Rb_tree_iteratorIiEC2EPSt13_Rb_tree_nodeIiE(%"struct.std::_Rb_tree_iterator"* %this, %"struct.std::_Rb_tree_node"* %__x) unnamed_addr #5 align 2 {
  %1 = alloca %"struct.std::_Rb_tree_iterator"*, align 8
  %2 = alloca %"struct.std::_Rb_tree_node"*, align 8
  store %"struct.std::_Rb_tree_iterator"* %this, %"struct.std::_Rb_tree_iterator"** %1, align 8
  store %"struct.std::_Rb_tree_node"* %__x, %"struct.std::_Rb_tree_node"** %2, align 8
  %3 = load %"struct.std::_Rb_tree_iterator"** %1
  %4 = getelementptr inbounds %"struct.std::_Rb_tree_iterator"* %3, i32 0, i32 0
  %5 = load %"struct.std::_Rb_tree_node"** %2, align 8
  %6 = bitcast %"struct.std::_Rb_tree_node"* %5 to %"struct.std::_Rb_tree_node_base"*
  store %"struct.std::_Rb_tree_node_base"* %6, %"struct.std::_Rb_tree_node_base"** %4, align 8
  ret void
}

; Function Attrs: nounwind uwtable
define linkonce_odr zeroext i1 @_ZNKSt4lessIiEclERKiS2_(%"struct.std::less"* %this, i32* %__x, i32* %__y) #5 align 2 {
  %1 = alloca %"struct.std::less"*, align 8
  %2 = alloca i32*, align 8
  %3 = alloca i32*, align 8
  store %"struct.std::less"* %this, %"struct.std::less"** %1, align 8
  store i32* %__x, i32** %2, align 8
  store i32* %__y, i32** %3, align 8
  %4 = load %"struct.std::less"** %1
  %5 = load i32** %2, align 8
  %6 = load i32* %5, align 4
  %7 = load i32** %3, align 8
  %8 = load i32* %7, align 4
  %9 = icmp slt i32 %6, %8
  ret i1 %9
}

; Function Attrs: uwtable
define linkonce_odr i32* @_ZNSt8_Rb_treeIiiSt9_IdentityIiESt4lessIiESaIiEE6_S_keyEPKSt13_Rb_tree_nodeIiE(%"struct.std::_Rb_tree_node"* %__x) #2 align 2 {
  %1 = alloca %"struct.std::_Rb_tree_node"*, align 8
  %2 = alloca %"struct.std::_Identity", align 1
  store %"struct.std::_Rb_tree_node"* %__x, %"struct.std::_Rb_tree_node"** %1, align 8
  %3 = load %"struct.std::_Rb_tree_node"** %1, align 8
  %4 = call i32* @_ZNSt8_Rb_treeIiiSt9_IdentityIiESt4lessIiESaIiEE8_S_valueEPKSt13_Rb_tree_nodeIiE(%"struct.std::_Rb_tree_node"* %3)
  %5 = call i32* @_ZNKSt9_IdentityIiEclERKi(%"struct.std::_Identity"* %2, i32* %4)
  ret i32* %5
}

; Function Attrs: uwtable
define linkonce_odr %"struct.std::_Rb_tree_node_base"* @_ZNSt8_Rb_treeIiiSt9_IdentityIiESt4lessIiESaIiEE14_M_lower_boundEPSt13_Rb_tree_nodeIiES8_RKi(%"class.std::_Rb_tree"* %this, %"struct.std::_Rb_tree_node"* %__x, %"struct.std::_Rb_tree_node"* %__y, i32* %__k) #2 align 2 {
  %1 = alloca %"struct.std::_Rb_tree_iterator", align 8
  %2 = alloca %"class.std::_Rb_tree"*, align 8
  %3 = alloca %"struct.std::_Rb_tree_node"*, align 8
  %4 = alloca %"struct.std::_Rb_tree_node"*, align 8
  %5 = alloca i32*, align 8
  store %"class.std::_Rb_tree"* %this, %"class.std::_Rb_tree"** %2, align 8
  store %"struct.std::_Rb_tree_node"* %__x, %"struct.std::_Rb_tree_node"** %3, align 8
  store %"struct.std::_Rb_tree_node"* %__y, %"struct.std::_Rb_tree_node"** %4, align 8
  store i32* %__k, i32** %5, align 8
  %6 = load %"class.std::_Rb_tree"** %2
  br label %7

; <label>:7                                       ; preds = %26, %0
  %8 = load %"struct.std::_Rb_tree_node"** %3, align 8
  %9 = icmp ne %"struct.std::_Rb_tree_node"* %8, null
  br i1 %9, label %10, label %27

; <label>:10                                      ; preds = %7
  %11 = getelementptr inbounds %"class.std::_Rb_tree"* %6, i32 0, i32 0
  %12 = getelementptr inbounds %"struct.std::_Rb_tree<int, int, std::_Identity<int>, std::less<int>, std::allocator<int> >::_Rb_tree_impl"* %11, i32 0, i32 0
  %13 = load %"struct.std::_Rb_tree_node"** %3, align 8
  %14 = call i32* @_ZNSt8_Rb_treeIiiSt9_IdentityIiESt4lessIiESaIiEE6_S_keyEPKSt13_Rb_tree_nodeIiE(%"struct.std::_Rb_tree_node"* %13)
  %15 = load i32** %5, align 8
  %16 = call zeroext i1 @_ZNKSt4lessIiEclERKiS2_(%"struct.std::less"* %12, i32* %14, i32* %15)
  br i1 %16, label %22, label %17

; <label>:17                                      ; preds = %10
  %18 = load %"struct.std::_Rb_tree_node"** %3, align 8
  store %"struct.std::_Rb_tree_node"* %18, %"struct.std::_Rb_tree_node"** %4, align 8
  %19 = load %"struct.std::_Rb_tree_node"** %3, align 8
  %20 = bitcast %"struct.std::_Rb_tree_node"* %19 to %"struct.std::_Rb_tree_node_base"*
  %21 = call %"struct.std::_Rb_tree_node"* @_ZNSt8_Rb_treeIiiSt9_IdentityIiESt4lessIiESaIiEE7_S_leftEPSt18_Rb_tree_node_base(%"struct.std::_Rb_tree_node_base"* %20)
  store %"struct.std::_Rb_tree_node"* %21, %"struct.std::_Rb_tree_node"** %3, align 8
  br label %26

; <label>:22                                      ; preds = %10
  %23 = load %"struct.std::_Rb_tree_node"** %3, align 8
  %24 = bitcast %"struct.std::_Rb_tree_node"* %23 to %"struct.std::_Rb_tree_node_base"*
  %25 = call %"struct.std::_Rb_tree_node"* @_ZNSt8_Rb_treeIiiSt9_IdentityIiESt4lessIiESaIiEE8_S_rightEPSt18_Rb_tree_node_base(%"struct.std::_Rb_tree_node_base"* %24)
  store %"struct.std::_Rb_tree_node"* %25, %"struct.std::_Rb_tree_node"** %3, align 8
  br label %26

; <label>:26                                      ; preds = %22, %17
  br label %7

; <label>:27                                      ; preds = %7
  %28 = load %"struct.std::_Rb_tree_node"** %4, align 8
  call void @_ZNSt17_Rb_tree_iteratorIiEC2EPSt13_Rb_tree_nodeIiE(%"struct.std::_Rb_tree_iterator"* %1, %"struct.std::_Rb_tree_node"* %28)
  %29 = getelementptr %"struct.std::_Rb_tree_iterator"* %1, i32 0, i32 0
  %30 = load %"struct.std::_Rb_tree_node_base"** %29
  ret %"struct.std::_Rb_tree_node_base"* %30
}

; Function Attrs: uwtable
define linkonce_odr %"struct.std::_Rb_tree_node_base"* @_ZNSt8_Rb_treeIiiSt9_IdentityIiESt4lessIiESaIiEE14_M_upper_boundEPSt13_Rb_tree_nodeIiES8_RKi(%"class.std::_Rb_tree"* %this, %"struct.std::_Rb_tree_node"* %__x, %"struct.std::_Rb_tree_node"* %__y, i32* %__k) #2 align 2 {
  %1 = alloca %"struct.std::_Rb_tree_iterator", align 8
  %2 = alloca %"class.std::_Rb_tree"*, align 8
  %3 = alloca %"struct.std::_Rb_tree_node"*, align 8
  %4 = alloca %"struct.std::_Rb_tree_node"*, align 8
  %5 = alloca i32*, align 8
  store %"class.std::_Rb_tree"* %this, %"class.std::_Rb_tree"** %2, align 8
  store %"struct.std::_Rb_tree_node"* %__x, %"struct.std::_Rb_tree_node"** %3, align 8
  store %"struct.std::_Rb_tree_node"* %__y, %"struct.std::_Rb_tree_node"** %4, align 8
  store i32* %__k, i32** %5, align 8
  %6 = load %"class.std::_Rb_tree"** %2
  br label %7

; <label>:7                                       ; preds = %26, %0
  %8 = load %"struct.std::_Rb_tree_node"** %3, align 8
  %9 = icmp ne %"struct.std::_Rb_tree_node"* %8, null
  br i1 %9, label %10, label %27

; <label>:10                                      ; preds = %7
  %11 = getelementptr inbounds %"class.std::_Rb_tree"* %6, i32 0, i32 0
  %12 = getelementptr inbounds %"struct.std::_Rb_tree<int, int, std::_Identity<int>, std::less<int>, std::allocator<int> >::_Rb_tree_impl"* %11, i32 0, i32 0
  %13 = load i32** %5, align 8
  %14 = load %"struct.std::_Rb_tree_node"** %3, align 8
  %15 = call i32* @_ZNSt8_Rb_treeIiiSt9_IdentityIiESt4lessIiESaIiEE6_S_keyEPKSt13_Rb_tree_nodeIiE(%"struct.std::_Rb_tree_node"* %14)
  %16 = call zeroext i1 @_ZNKSt4lessIiEclERKiS2_(%"struct.std::less"* %12, i32* %13, i32* %15)
  br i1 %16, label %17, label %22

; <label>:17                                      ; preds = %10
  %18 = load %"struct.std::_Rb_tree_node"** %3, align 8
  store %"struct.std::_Rb_tree_node"* %18, %"struct.std::_Rb_tree_node"** %4, align 8
  %19 = load %"struct.std::_Rb_tree_node"** %3, align 8
  %20 = bitcast %"struct.std::_Rb_tree_node"* %19 to %"struct.std::_Rb_tree_node_base"*
  %21 = call %"struct.std::_Rb_tree_node"* @_ZNSt8_Rb_treeIiiSt9_IdentityIiESt4lessIiESaIiEE7_S_leftEPSt18_Rb_tree_node_base(%"struct.std::_Rb_tree_node_base"* %20)
  store %"struct.std::_Rb_tree_node"* %21, %"struct.std::_Rb_tree_node"** %3, align 8
  br label %26

; <label>:22                                      ; preds = %10
  %23 = load %"struct.std::_Rb_tree_node"** %3, align 8
  %24 = bitcast %"struct.std::_Rb_tree_node"* %23 to %"struct.std::_Rb_tree_node_base"*
  %25 = call %"struct.std::_Rb_tree_node"* @_ZNSt8_Rb_treeIiiSt9_IdentityIiESt4lessIiESaIiEE8_S_rightEPSt18_Rb_tree_node_base(%"struct.std::_Rb_tree_node_base"* %24)
  store %"struct.std::_Rb_tree_node"* %25, %"struct.std::_Rb_tree_node"** %3, align 8
  br label %26

; <label>:26                                      ; preds = %22, %17
  br label %7

; <label>:27                                      ; preds = %7
  %28 = load %"struct.std::_Rb_tree_node"** %4, align 8
  call void @_ZNSt17_Rb_tree_iteratorIiEC2EPSt13_Rb_tree_nodeIiE(%"struct.std::_Rb_tree_iterator"* %1, %"struct.std::_Rb_tree_node"* %28)
  %29 = getelementptr %"struct.std::_Rb_tree_iterator"* %1, i32 0, i32 0
  %30 = load %"struct.std::_Rb_tree_node_base"** %29
  ret %"struct.std::_Rb_tree_node_base"* %30
}

; Function Attrs: nounwind uwtable
define linkonce_odr void @_ZNSt4pairISt17_Rb_tree_iteratorIiES1_EC2ERKS1_S4_(%"struct.std::pair.21"* %this, %"struct.std::_Rb_tree_iterator"* %__a, %"struct.std::_Rb_tree_iterator"* %__b) unnamed_addr #5 align 2 {
  %1 = alloca %"struct.std::pair.21"*, align 8
  %2 = alloca %"struct.std::_Rb_tree_iterator"*, align 8
  %3 = alloca %"struct.std::_Rb_tree_iterator"*, align 8
  store %"struct.std::pair.21"* %this, %"struct.std::pair.21"** %1, align 8
  store %"struct.std::_Rb_tree_iterator"* %__a, %"struct.std::_Rb_tree_iterator"** %2, align 8
  store %"struct.std::_Rb_tree_iterator"* %__b, %"struct.std::_Rb_tree_iterator"** %3, align 8
  %4 = load %"struct.std::pair.21"** %1
  %5 = getelementptr inbounds %"struct.std::pair.21"* %4, i32 0, i32 0
  %6 = load %"struct.std::_Rb_tree_iterator"** %2, align 8
  %7 = bitcast %"struct.std::_Rb_tree_iterator"* %5 to i8*
  %8 = bitcast %"struct.std::_Rb_tree_iterator"* %6 to i8*
  call void @llvm.memcpy.p0i8.p0i8.i64(i8* %7, i8* %8, i64 8, i32 8, i1 false)
  %9 = getelementptr inbounds %"struct.std::pair.21"* %4, i32 0, i32 1
  %10 = load %"struct.std::_Rb_tree_iterator"** %3, align 8
  %11 = bitcast %"struct.std::_Rb_tree_iterator"* %9 to i8*
  %12 = bitcast %"struct.std::_Rb_tree_iterator"* %10 to i8*
  call void @llvm.memcpy.p0i8.p0i8.i64(i8* %11, i8* %12, i64 8, i32 8, i1 false)
  ret void
}

; Function Attrs: nounwind uwtable
define linkonce_odr i32* @_ZNKSt9_IdentityIiEclERKi(%"struct.std::_Identity"* %this, i32* %__x) #5 align 2 {
  %1 = alloca %"struct.std::_Identity"*, align 8
  %2 = alloca i32*, align 8
  store %"struct.std::_Identity"* %this, %"struct.std::_Identity"** %1, align 8
  store i32* %__x, i32** %2, align 8
  %3 = load %"struct.std::_Identity"** %1
  %4 = load i32** %2, align 8
  ret i32* %4
}

; Function Attrs: nounwind uwtable
define linkonce_odr i32* @_ZNSt8_Rb_treeIiiSt9_IdentityIiESt4lessIiESaIiEE8_S_valueEPKSt13_Rb_tree_nodeIiE(%"struct.std::_Rb_tree_node"* %__x) #5 align 2 {
  %1 = alloca %"struct.std::_Rb_tree_node"*, align 8
  store %"struct.std::_Rb_tree_node"* %__x, %"struct.std::_Rb_tree_node"** %1, align 8
  %2 = load %"struct.std::_Rb_tree_node"** %1, align 8
  %3 = getelementptr inbounds %"struct.std::_Rb_tree_node"* %2, i32 0, i32 1
  ret i32* %3
}

; Function Attrs: uwtable
define linkonce_odr void @_ZNSt5dequeIiSaIiEE9pop_frontEv(%"class.std::deque"* %this) #2 align 2 {
  %1 = alloca %"class.std::deque"*, align 8
  store %"class.std::deque"* %this, %"class.std::deque"** %1, align 8
  %2 = load %"class.std::deque"** %1
  %3 = bitcast %"class.std::deque"* %2 to %"class.std::_Deque_base"*
  %4 = getelementptr inbounds %"class.std::_Deque_base"* %3, i32 0, i32 0
  %5 = getelementptr inbounds %"struct.std::_Deque_base<int, std::allocator<int> >::_Deque_impl"* %4, i32 0, i32 2
  %6 = getelementptr inbounds %"struct.std::_Deque_iterator"* %5, i32 0, i32 0
  %7 = load i32** %6, align 8
  %8 = bitcast %"class.std::deque"* %2 to %"class.std::_Deque_base"*
  %9 = getelementptr inbounds %"class.std::_Deque_base"* %8, i32 0, i32 0
  %10 = getelementptr inbounds %"struct.std::_Deque_base<int, std::allocator<int> >::_Deque_impl"* %9, i32 0, i32 2
  %11 = getelementptr inbounds %"struct.std::_Deque_iterator"* %10, i32 0, i32 2
  %12 = load i32** %11, align 8
  %13 = getelementptr inbounds i32* %12, i64 -1
  %14 = icmp ne i32* %7, %13
  br i1 %14, label %15, label %30

; <label>:15                                      ; preds = %0
  %16 = bitcast %"class.std::deque"* %2 to %"class.std::_Deque_base"*
  %17 = getelementptr inbounds %"class.std::_Deque_base"* %16, i32 0, i32 0
  %18 = bitcast %"struct.std::_Deque_base<int, std::allocator<int> >::_Deque_impl"* %17 to %"class.__gnu_cxx::new_allocator.3"*
  %19 = bitcast %"class.std::deque"* %2 to %"class.std::_Deque_base"*
  %20 = getelementptr inbounds %"class.std::_Deque_base"* %19, i32 0, i32 0
  %21 = getelementptr inbounds %"struct.std::_Deque_base<int, std::allocator<int> >::_Deque_impl"* %20, i32 0, i32 2
  %22 = getelementptr inbounds %"struct.std::_Deque_iterator"* %21, i32 0, i32 0
  %23 = load i32** %22, align 8
  call void @_ZN9__gnu_cxx13new_allocatorIiE7destroyEPi(%"class.__gnu_cxx::new_allocator.3"* %18, i32* %23)
  %24 = bitcast %"class.std::deque"* %2 to %"class.std::_Deque_base"*
  %25 = getelementptr inbounds %"class.std::_Deque_base"* %24, i32 0, i32 0
  %26 = getelementptr inbounds %"struct.std::_Deque_base<int, std::allocator<int> >::_Deque_impl"* %25, i32 0, i32 2
  %27 = getelementptr inbounds %"struct.std::_Deque_iterator"* %26, i32 0, i32 0
  %28 = load i32** %27, align 8
  %29 = getelementptr inbounds i32* %28, i32 1
  store i32* %29, i32** %27, align 8
  br label %31

; <label>:30                                      ; preds = %0
  call void @_ZNSt5dequeIiSaIiEE16_M_pop_front_auxEv(%"class.std::deque"* %2)
  br label %31

; <label>:31                                      ; preds = %30, %15
  ret void
}

; Function Attrs: uwtable
define linkonce_odr void @_ZNSt5dequeIiSaIiEE16_M_pop_front_auxEv(%"class.std::deque"* %this) #2 align 2 {
  %1 = alloca %"class.std::deque"*, align 8
  store %"class.std::deque"* %this, %"class.std::deque"** %1, align 8
  %2 = load %"class.std::deque"** %1
  %3 = bitcast %"class.std::deque"* %2 to %"class.std::_Deque_base"*
  %4 = getelementptr inbounds %"class.std::_Deque_base"* %3, i32 0, i32 0
  %5 = bitcast %"struct.std::_Deque_base<int, std::allocator<int> >::_Deque_impl"* %4 to %"class.__gnu_cxx::new_allocator.3"*
  %6 = bitcast %"class.std::deque"* %2 to %"class.std::_Deque_base"*
  %7 = getelementptr inbounds %"class.std::_Deque_base"* %6, i32 0, i32 0
  %8 = getelementptr inbounds %"struct.std::_Deque_base<int, std::allocator<int> >::_Deque_impl"* %7, i32 0, i32 2
  %9 = getelementptr inbounds %"struct.std::_Deque_iterator"* %8, i32 0, i32 0
  %10 = load i32** %9, align 8
  call void @_ZN9__gnu_cxx13new_allocatorIiE7destroyEPi(%"class.__gnu_cxx::new_allocator.3"* %5, i32* %10)
  %11 = bitcast %"class.std::deque"* %2 to %"class.std::_Deque_base"*
  %12 = bitcast %"class.std::deque"* %2 to %"class.std::_Deque_base"*
  %13 = getelementptr inbounds %"class.std::_Deque_base"* %12, i32 0, i32 0
  %14 = getelementptr inbounds %"struct.std::_Deque_base<int, std::allocator<int> >::_Deque_impl"* %13, i32 0, i32 2
  %15 = getelementptr inbounds %"struct.std::_Deque_iterator"* %14, i32 0, i32 1
  %16 = load i32** %15, align 8
  call void @_ZNSt11_Deque_baseIiSaIiEE18_M_deallocate_nodeEPi(%"class.std::_Deque_base"* %11, i32* %16)
  %17 = bitcast %"class.std::deque"* %2 to %"class.std::_Deque_base"*
  %18 = getelementptr inbounds %"class.std::_Deque_base"* %17, i32 0, i32 0
  %19 = getelementptr inbounds %"struct.std::_Deque_base<int, std::allocator<int> >::_Deque_impl"* %18, i32 0, i32 2
  %20 = bitcast %"class.std::deque"* %2 to %"class.std::_Deque_base"*
  %21 = getelementptr inbounds %"class.std::_Deque_base"* %20, i32 0, i32 0
  %22 = getelementptr inbounds %"struct.std::_Deque_base<int, std::allocator<int> >::_Deque_impl"* %21, i32 0, i32 2
  %23 = getelementptr inbounds %"struct.std::_Deque_iterator"* %22, i32 0, i32 3
  %24 = load i32*** %23, align 8
  %25 = getelementptr inbounds i32** %24, i64 1
  call void @_ZNSt15_Deque_iteratorIiRiPiE11_M_set_nodeEPS1_(%"struct.std::_Deque_iterator"* %19, i32** %25)
  %26 = bitcast %"class.std::deque"* %2 to %"class.std::_Deque_base"*
  %27 = getelementptr inbounds %"class.std::_Deque_base"* %26, i32 0, i32 0
  %28 = getelementptr inbounds %"struct.std::_Deque_base<int, std::allocator<int> >::_Deque_impl"* %27, i32 0, i32 2
  %29 = getelementptr inbounds %"struct.std::_Deque_iterator"* %28, i32 0, i32 1
  %30 = load i32** %29, align 8
